ARM GAS  C:\Users\Dylan\AppData\Local\Temp\ccVzxTKX.s 			page 1


   1              		.cpu cortex-m0
   2              		.fpu softvfp
   3              		.eabi_attribute 20, 1
   4              		.eabi_attribute 21, 1
   5              		.eabi_attribute 23, 3
   6              		.eabi_attribute 24, 1
   7              		.eabi_attribute 25, 1
   8              		.eabi_attribute 26, 1
   9              		.eabi_attribute 30, 1
  10              		.eabi_attribute 34, 0
  11              		.eabi_attribute 18, 4
  12              		.code	16
  13              		.file	"fonction.c"
  14              		.text
  15              	.Ltext0:
  16              		.cfi_sections	.debug_frame
  17              		.section	.text.reception,"ax",%progbits
  18              		.align	2
  19              		.global	reception
  20              		.code	16
  21              		.thumb_func
  22              		.type	reception, %function
  23              	reception:
  24              	.LFB33:
  25              		.file 1 ".\\fonction.c"
   1:.\fonction.c  **** /* ========================================
   2:.\fonction.c  ****  *
   3:.\fonction.c  ****  * Copyright YOUR COMPANY, THE YEAR
   4:.\fonction.c  ****  * All Rights Reserved
   5:.\fonction.c  ****  * UNPUBLISHED, LICENSED SOFTWARE.
   6:.\fonction.c  ****  *
   7:.\fonction.c  ****  * CONFIDENTIAL AND PROPRIETARY INFORMATION
   8:.\fonction.c  ****  * WHICH IS THE PROPERTY OF your company.
   9:.\fonction.c  ****  *
  10:.\fonction.c  ****  * ========================================
  11:.\fonction.c  **** */
  12:.\fonction.c  **** #include <fonction.h>
  13:.\fonction.c  **** #include <project.h>
  14:.\fonction.c  **** 
  15:.\fonction.c  **** #include <string.h>
  16:.\fonction.c  **** #include <stdio.h>
  17:.\fonction.c  **** 
  18:.\fonction.c  **** 
  19:.\fonction.c  **** uint16 reception(int8 *voie){
  26              		.loc 1 19 0
  27              		.cfi_startproc
  28              	.LVL0:
  29 0000 38B5     		push	{r3, r4, r5, lr}
  30              		.cfi_def_cfa_offset 16
  31              		.cfi_offset 3, -16
  32              		.cfi_offset 4, -12
  33              		.cfi_offset 5, -8
  34              		.cfi_offset 14, -4
  35 0002 051C     		mov	r5, r0
  36              	.LVL1:
  37              	.L2:
  20:.\fonction.c  ****     
ARM GAS  C:\Users\Dylan\AppData\Local\Temp\ccVzxTKX.s 			page 2


  21:.\fonction.c  ****     	    char remote_char_low = 0;
  22:.\fonction.c  ****             char remote_char_high = 0;
  23:.\fonction.c  ****     
  24:.\fonction.c  ****             // on attend un octet avec le flag 1 (pour le high)
  25:.\fonction.c  ****             do{
  26:.\fonction.c  ****                     while(XBee_SpiUartGetRxBufferSize() == 0);
  38              		.loc 1 26 0 discriminator 1
  39 0004 FFF7FEFF 		bl	XBee_SpiUartGetRxBufferSize
  40              	.LVL2:
  41 0008 0028     		cmp	r0, #0
  42 000a FBD0     		beq	.L2
  27:.\fonction.c  ****                     remote_char_high = XBee_UartGetChar();
  43              		.loc 1 27 0
  44 000c FFF7FEFF 		bl	XBee_UartGetChar
  45              	.LVL3:
  28:.\fonction.c  ****                 }
  29:.\fonction.c  ****             while((remote_char_high & 0x80) != 0x80);
  46              		.loc 1 29 0
  47 0010 C4B2     		uxtb	r4, r0
  48 0012 0306     		lsl	r3, r0, #24
  49 0014 F6D5     		bpl	.L2
  30:.\fonction.c  ****             
  31:.\fonction.c  ****             
  32:.\fonction.c  ****             switch (remote_char_high & 0xC0)
  50              		.loc 1 32 0
  51 0016 C023     		mov	r3, #192
  52 0018 1840     		and	r0, r3
  53              	.LVL4:
  54 001a 8028     		cmp	r0, #128
  55 001c 06D0     		beq	.L5
  56 001e C028     		cmp	r0, #192
  57 0020 0AD1     		bne	.L10
  33:.\fonction.c  ****             {
  34:.\fonction.c  ****                 case 0xC0 ://si on recoit a_x, on le sait (c'est le seul a avoir le flag 11
  35:.\fonction.c  ****                 {
  36:.\fonction.c  ****                     remote_char_high -= 0xC0;
  58              		.loc 1 36 0
  59 0022 4034     		add	r4, r4, #64
  60              	.LVL5:
  61 0024 E4B2     		uxtb	r4, r4
  62              	.LVL6:
  37:.\fonction.c  ****                     *voie = 1 ;
  63              		.loc 1 37 0
  64 0026 BF3B     		sub	r3, r3, #191
  65 0028 2B70     		strb	r3, [r5]
  38:.\fonction.c  ****                     break;    
  66              		.loc 1 38 0
  67 002a 07E0     		b	.L8
  68              	.L5:
  39:.\fonction.c  ****                 }
  40:.\fonction.c  ****                 
  41:.\fonction.c  ****                 case 0x80 :// si on a le flag 10 c'est qu'on a bien eu la valeur suivante
  42:.\fonction.c  ****                 {
  43:.\fonction.c  ****                     remote_char_high -= 0x80;
  69              		.loc 1 43 0
  70 002c 803C     		sub	r4, r4, #128
  71              	.LVL7:
ARM GAS  C:\Users\Dylan\AppData\Local\Temp\ccVzxTKX.s 			page 3


  72 002e E4B2     		uxtb	r4, r4
  73              	.LVL8:
  44:.\fonction.c  ****                     *voie = *voie + 1 ;
  74              		.loc 1 44 0
  75 0030 2B78     		ldrb	r3, [r5]
  76 0032 0133     		add	r3, r3, #1
  77 0034 2B70     		strb	r3, [r5]
  45:.\fonction.c  ****                     break;
  78              		.loc 1 45 0
  79 0036 01E0     		b	.L8
  80              	.L10:
  46:.\fonction.c  ****                 }
  47:.\fonction.c  ****                 default :
  48:.\fonction.c  ****                 {
  49:.\fonction.c  ****                  *voie = 0 ;   
  81              		.loc 1 49 0
  82 0038 0023     		mov	r3, #0
  83 003a 2B70     		strb	r3, [r5]
  84              	.LVL9:
  85              	.L8:
  50:.\fonction.c  ****                 }   
  51:.\fonction.c  ****             }
  52:.\fonction.c  ****             
  53:.\fonction.c  ****             //le prochain c'est le low :
  54:.\fonction.c  ****             while (XBee_SpiUartGetRxBufferSize()==0); // on attends.  
  86              		.loc 1 54 0 discriminator 1
  87 003c FFF7FEFF 		bl	XBee_SpiUartGetRxBufferSize
  88              	.LVL10:
  89 0040 0028     		cmp	r0, #0
  90 0042 FBD0     		beq	.L8
  55:.\fonction.c  ****             remote_char_low = XBee_UartGetChar();
  91              		.loc 1 55 0
  92 0044 FFF7FEFF 		bl	XBee_UartGetChar
  93              	.LVL11:
  56:.\fonction.c  ****             
  57:.\fonction.c  ****             // si ce n'est pas normal (on n'a pas le flag )
  58:.\fonction.c  ****             if ( !((remote_char_low & 0x80) == 0x00)){
  94              		.loc 1 58 0
  95 0048 C3B2     		uxtb	r3, r0
  96 004a 0206     		lsl	r2, r0, #24
  97 004c 01D5     		bpl	.L9
  59:.\fonction.c  ****                 *voie = 0 ;
  98              		.loc 1 59 0
  99 004e 0022     		mov	r2, #0
 100 0050 2A70     		strb	r2, [r5]
 101              	.L9:
  60:.\fonction.c  ****             }
  61:.\fonction.c  ****                 
  62:.\fonction.c  ****             // On reforme l'uint16.
  63:.\fonction.c  ****             uint16 numeric_acc = (remote_char_high & 0x3F) ;
 102              		.loc 1 63 0
 103 0052 3F22     		mov	r2, #63
 104 0054 1440     		and	r4, r2
 105              	.LVL12:
  64:.\fonction.c  ****             numeric_acc <<=7; //decallage de 7 bits vers la gauche et affecte à numeric_acc
 106              		.loc 1 64 0
 107 0056 E401     		lsl	r4, r4, #7
ARM GAS  C:\Users\Dylan\AppData\Local\Temp\ccVzxTKX.s 			page 4


 108              	.LVL13:
  65:.\fonction.c  ****             numeric_acc += remote_char_low & 0x7F;
 109              		.loc 1 65 0
 110 0058 4032     		add	r2, r2, #64
 111 005a 1340     		and	r3, r2
 112 005c E418     		add	r4, r4, r3
 113              	.LVL14:
  66:.\fonction.c  ****             CyDelay(10);
 114              		.loc 1 66 0
 115 005e 0A20     		mov	r0, #10
 116              	.LVL15:
 117 0060 FFF7FEFF 		bl	CyDelay
 118              	.LVL16:
  67:.\fonction.c  ****             
  68:.\fonction.c  ****             return numeric_acc;
  69:.\fonction.c  ****                
  70:.\fonction.c  **** }
 119              		.loc 1 70 0
 120 0064 201C     		mov	r0, r4
 121              		@ sp needed
 122              	.LVL17:
 123              	.LVL18:
 124 0066 38BD     		pop	{r3, r4, r5, pc}
 125              		.cfi_endproc
 126              	.LFE33:
 127              		.size	reception, .-reception
 128              		.text
 129              	.Letext0:
 130              		.file 2 "Generated_Source\\PSoC4/cytypes.h"
 131              		.file 3 "Generated_Source\\PSoC4/XBee_SPI_UART.h"
 132              		.file 4 "Generated_Source\\PSoC4/CyLib.h"