ARM GAS  C:\Users\Dylan\AppData\Local\Temp\ccPkX1nA.s 			page 1


   1              		.cpu cortex-m0
   2              		.fpu softvfp
   3              		.eabi_attribute 20, 1
   4              		.eabi_attribute 21, 1
   5              		.eabi_attribute 23, 3
   6              		.eabi_attribute 24, 1
   7              		.eabi_attribute 25, 1
   8              		.eabi_attribute 26, 1
   9              		.eabi_attribute 30, 1
  10              		.eabi_attribute 34, 0
  11              		.eabi_attribute 18, 4
  12              		.code	16
  13              		.file	"main.c"
  14              		.text
  15              	.Ltext0:
  16              		.cfi_sections	.debug_frame
  17              		.section	.text.main,"ax",%progbits
  18              		.align	2
  19              		.global	main
  20              		.code	16
  21              		.thumb_func
  22              		.type	main, %function
  23              	main:
  24              	.LFB33:
  25              		.file 1 ".\\main.c"
   1:.\main.c      **** /* ========================================
   2:.\main.c      ****  *
   3:.\main.c      ****  * Copyright YOUR COMPANY, THE YEAR
   4:.\main.c      ****  * All Rights Reserved
   5:.\main.c      ****  * UNPUBLISHED, LICENSED SOFTWARE.
   6:.\main.c      ****  *
   7:.\main.c      ****  * CONFIDENTIAL AND PROPRIETARY INFORMATION
   8:.\main.c      ****  * WHICH IS THE PROPERTY OF your company.
   9:.\main.c      ****  *
  10:.\main.c      ****  * ========================================
  11:.\main.c      **** */
  12:.\main.c      **** 
  13:.\main.c      **** /*
  14:.\main.c      **** Lors des envois, de temps en temps, certains se passe mal et le système se désynchronise.
  15:.\main.c      **** Pour resynchroniser, on utilise derniere_voie_recu
  16:.\main.c      **** On sait que l'on envoit a_x, a_y puis a_z
  17:.\main.c      **** ces grandeurs sont codées sur 13 bits. On envoie donc deux octets.
  18:.\main.c      **** On envoie d'abord a_x_MSB qui a pour valeur 11 puis 6 bits de données
  19:.\main.c      **** puis a_x_LSB qui a pour valeur 0 puis 7 bits de données
  20:.\main.c      **** 
  21:.\main.c      **** Ensuite vient a_y puis a_z avec la même logique sauf que le flag du MSB n'est plus 11 mais 10
  22:.\main.c      **** 
  23:.\main.c      **** derniere_voie_recu devient 1 si on vient de lire a_x
  24:.\main.c      **** il s'incrémente de 1 si on lit une valeur ayant le flag 10
  25:.\main.c      **** 
  26:.\main.c      **** S'il y a une erreur, derniere_voie_recu vaut 0
  27:.\main.c      **** 
  28:.\main.c      **** */
  29:.\main.c      **** #include <project.h>
  30:.\main.c      **** #include <string.h>
  31:.\main.c      **** #include <stdio.h>
  32:.\main.c      **** #include <fonction.h>
ARM GAS  C:\Users\Dylan\AppData\Local\Temp\ccPkX1nA.s 			page 2


  33:.\main.c      **** 
  34:.\main.c      **** 
  35:.\main.c      **** const char startup_header[] = "\n\rPsoc en mode reception\r\n";
  36:.\main.c      **** const char command_prompt[] = "reception : ";
  37:.\main.c      **** 
  38:.\main.c      **** int main()
  39:.\main.c      **** {
  26              		.loc 1 39 0
  27              		.cfi_startproc
  28 0000 30B5     		push	{r4, r5, lr}
  29              		.cfi_def_cfa_offset 12
  30              		.cfi_offset 4, -12
  31              		.cfi_offset 5, -8
  32              		.cfi_offset 14, -4
  33 0002 87B0     		sub	sp, sp, #28
  34              		.cfi_def_cfa_offset 40
  35              	.LVL0:
  40:.\main.c      ****     uint16 nb_erreur = 0 ;
  41:.\main.c      ****     int8 derniere_voie_recu = 0 ;
  36              		.loc 1 41 0
  37 0004 0023     		mov	r3, #0
  38 0006 1722     		mov	r2, #23
  39 0008 6A44     		add	r2, r2, sp
  40 000a 1370     		strb	r3, [r2]
  42:.\main.c      ****     
  43:.\main.c      ****     char str[20] = {'\0'};
  41              		.loc 1 43 0
  42 000c 0093     		str	r3, [sp]
  43 000e 0193     		str	r3, [sp, #4]
  44 0010 0293     		str	r3, [sp, #8]
  45 0012 0393     		str	r3, [sp, #12]
  46 0014 0493     		str	r3, [sp, #16]
  44:.\main.c      ****     
  45:.\main.c      ****     XBee_Start(); //Enable com between micro and XBee
  47              		.loc 1 45 0
  48 0016 FFF7FEFF 		bl	XBee_Start
  49              	.LVL1:
  46:.\main.c      **** 	PC_Start(); //Enable com between micro and PC
  50              		.loc 1 46 0
  51 001a FFF7FEFF 		bl	PC_Start
  52              	.LVL2:
  47:.\main.c      ****     
  48:.\main.c      ****     PC_UartPutString(startup_header);
  53              		.loc 1 48 0
  54 001e 1F4C     		ldr	r4, .L9
  55 0020 201C     		mov	r0, r4
  56 0022 FFF7FEFF 		bl	PC_UartPutString
  57              	.LVL3:
  49:.\main.c      **** 	PC_UartPutString("\n\r");
  58              		.loc 1 49 0
  59 0026 1E48     		ldr	r0, .L9+4
  60 0028 FFF7FEFF 		bl	PC_UartPutString
  61              	.LVL4:
  50:.\main.c      **** 	PC_UartPutString(command_prompt);
  62              		.loc 1 50 0
  63 002c 201C     		mov	r0, r4
  64 002e 1C30     		add	r0, r0, #28
ARM GAS  C:\Users\Dylan\AppData\Local\Temp\ccPkX1nA.s 			page 3


  65 0030 FFF7FEFF 		bl	PC_UartPutString
  66              	.LVL5:
  40:.\main.c      ****     int8 derniere_voie_recu = 0 ;
  67              		.loc 1 40 0
  68 0034 0025     		mov	r5, #0
  69              	.LVL6:
  70              	.L2:
  71              	.LBB2:
  51:.\main.c      ****     
  52:.\main.c      ****     for(;;)
  53:.\main.c      ****     {
  54:.\main.c      **** 
  55:.\main.c      ****         uint16 acc_received = reception(&derniere_voie_recu);
  72              		.loc 1 55 0
  73 0036 1724     		mov	r4, #23
  74 0038 6C44     		add	r4, r4, sp
  75 003a 201C     		mov	r0, r4
  76 003c FFF7FEFF 		bl	reception
  77              	.LVL7:
  78 0040 021C     		mov	r2, r0
  79              	.LVL8:
  56:.\main.c      **** 
  57:.\main.c      ****         switch(derniere_voie_recu)
  80              		.loc 1 57 0
  81 0042 2378     		ldrb	r3, [r4]
  82 0044 022B     		cmp	r3, #2
  83 0046 0BD0     		beq	.L4
  84 0048 032B     		cmp	r3, #3
  85 004a 11D0     		beq	.L5
  86 004c 012B     		cmp	r3, #1
  87 004e 1AD1     		bne	.L8
  58:.\main.c      ****         {
  59:.\main.c      ****             case 1:
  60:.\main.c      ****             {    
  61:.\main.c      ****                 sprintf(str, "a_x :%d\n\r",acc_received);
  88              		.loc 1 61 0
  89 0050 6846     		mov	r0, sp
  90 0052 1449     		ldr	r1, .L9+8
  91 0054 FFF7FEFF 		bl	sprintf
  92              	.LVL9:
  62:.\main.c      ****                 PC_UartPutString(str); // Print received characters in local terminal
  93              		.loc 1 62 0
  94 0058 6846     		mov	r0, sp
  95 005a FFF7FEFF 		bl	PC_UartPutString
  96              	.LVL10:
  63:.\main.c      ****                 break;
  97              		.loc 1 63 0
  98 005e EAE7     		b	.L2
  99              	.LVL11:
 100              	.L4:
  64:.\main.c      ****             }
  65:.\main.c      ****         
  66:.\main.c      ****         
  67:.\main.c      ****             case 2: 
  68:.\main.c      ****             {
  69:.\main.c      ****                 sprintf(str, "a_y :%d\n\r",acc_received);
 101              		.loc 1 69 0
ARM GAS  C:\Users\Dylan\AppData\Local\Temp\ccPkX1nA.s 			page 4


 102 0060 6846     		mov	r0, sp
 103 0062 1149     		ldr	r1, .L9+12
 104 0064 FFF7FEFF 		bl	sprintf
 105              	.LVL12:
  70:.\main.c      ****                 PC_UartPutString(str); // Print received characters in local terminal
 106              		.loc 1 70 0
 107 0068 6846     		mov	r0, sp
 108 006a FFF7FEFF 		bl	PC_UartPutString
 109              	.LVL13:
  71:.\main.c      ****                 break;
 110              		.loc 1 71 0
 111 006e E2E7     		b	.L2
 112              	.LVL14:
 113              	.L5:
  72:.\main.c      ****             }
  73:.\main.c      ****             case 3 :
  74:.\main.c      ****             {
  75:.\main.c      ****                 sprintf(str, "a_z :%d\n\r",acc_received);
 114              		.loc 1 75 0
 115 0070 6846     		mov	r0, sp
 116 0072 0E49     		ldr	r1, .L9+16
 117 0074 FFF7FEFF 		bl	sprintf
 118              	.LVL15:
  76:.\main.c      ****                 PC_UartPutString(str); // Print received characters in local terminal
 119              		.loc 1 76 0
 120 0078 6846     		mov	r0, sp
 121 007a FFF7FEFF 		bl	PC_UartPutString
 122              	.LVL16:
  77:.\main.c      ****                 PC_UartPutString("\n\r");
 123              		.loc 1 77 0
 124 007e 0848     		ldr	r0, .L9+4
 125 0080 FFF7FEFF 		bl	PC_UartPutString
 126              	.LVL17:
  78:.\main.c      ****                 break;
 127              		.loc 1 78 0
 128 0084 D7E7     		b	.L2
 129              	.LVL18:
 130              	.L8:
  79:.\main.c      ****             }
  80:.\main.c      ****             default :
  81:.\main.c      ****             {
  82:.\main.c      ****                 nb_erreur++;
 131              		.loc 1 82 0
 132 0086 0135     		add	r5, r5, #1
 133              	.LVL19:
 134 0088 ADB2     		uxth	r5, r5
 135              	.LVL20:
  83:.\main.c      ****                 sprintf(str, "erreur numero : %d\n\r",nb_erreur);
 136              		.loc 1 83 0
 137 008a 6846     		mov	r0, sp
 138 008c 0849     		ldr	r1, .L9+20
 139 008e 2A1C     		mov	r2, r5
 140              	.LVL21:
 141 0090 FFF7FEFF 		bl	sprintf
 142              	.LVL22:
  84:.\main.c      ****                 PC_UartPutString(str); 
 143              		.loc 1 84 0
ARM GAS  C:\Users\Dylan\AppData\Local\Temp\ccPkX1nA.s 			page 5


 144 0094 6846     		mov	r0, sp
 145 0096 FFF7FEFF 		bl	PC_UartPutString
 146              	.LVL23:
 147 009a CCE7     		b	.L2
 148              	.L10:
 149              		.align	2
 150              	.L9:
 151 009c 00000000 		.word	.LANCHOR0
 152 00a0 00000000 		.word	.LC1
 153 00a4 04000000 		.word	.LC3
 154 00a8 10000000 		.word	.LC5
 155 00ac 1C000000 		.word	.LC7
 156 00b0 28000000 		.word	.LC9
 157              	.LBE2:
 158              		.cfi_endproc
 159              	.LFE33:
 160              		.size	main, .-main
 161              		.global	command_prompt
 162              		.global	startup_header
 163              		.section	.rodata
 164              		.align	2
 165              		.set	.LANCHOR0,. + 0
 166              		.type	startup_header, %object
 167              		.size	startup_header, 27
 168              	startup_header:
 169 0000 0A0D5073 		.ascii	"\012\015Psoc en mode reception\015\012\000"
 169      6F632065 
 169      6E206D6F 
 169      64652072 
 169      65636570 
 170 001b 00       		.space	1
 171              		.type	command_prompt, %object
 172              		.size	command_prompt, 13
 173              	command_prompt:
 174 001c 72656365 		.ascii	"reception : \000"
 174      7074696F 
 174      6E203A20 
 174      00
 175 0029 000000   		.section	.rodata.str1.4,"aMS",%progbits,1
 176              		.align	2
 177              	.LC1:
 178 0000 0A0D00   		.ascii	"\012\015\000"
 179 0003 00       		.space	1
 180              	.LC3:
 181 0004 615F7820 		.ascii	"a_x :%d\012\015\000"
 181      3A25640A 
 181      0D00
 182 000e 0000     		.space	2
 183              	.LC5:
 184 0010 615F7920 		.ascii	"a_y :%d\012\015\000"
 184      3A25640A 
 184      0D00
 185 001a 0000     		.space	2
 186              	.LC7:
 187 001c 615F7A20 		.ascii	"a_z :%d\012\015\000"
 187      3A25640A 
 187      0D00
ARM GAS  C:\Users\Dylan\AppData\Local\Temp\ccPkX1nA.s 			page 6


 188 0026 0000     		.space	2
 189              	.LC9:
 190 0028 65727265 		.ascii	"erreur numero : %d\012\015\000"
 190      7572206E 
 190      756D6572 
 190      6F203A20 
 190      25640A0D 
 191 003d 000000   		.text
 192              	.Letext0:
 193              		.file 2 "Generated_Source\\PSoC4/cytypes.h"
 194              		.file 3 "./fonction.h"
 195              		.file 4 "c:\\program files (x86)\\cypress\\psoc creator\\3.3\\psoc creator\\import\\gnu\\arm\\4.9.
 196              		.file 5 "Generated_Source\\PSoC4/XBee.h"
 197              		.file 6 "Generated_Source\\PSoC4/PC.h"
 198              		.file 7 "Generated_Source\\PSoC4/PC_SPI_UART.h"