ARM GAS  C:\Users\Dylan\AppData\Local\Temp\ccOtUxRE.s 			page 1


   1              		.cpu cortex-m0
   2              		.fpu softvfp
   3              		.eabi_attribute 20, 1
   4              		.eabi_attribute 21, 1
   5              		.eabi_attribute 23, 3
   6              		.eabi_attribute 24, 1
   7              		.eabi_attribute 25, 1
   8              		.eabi_attribute 26, 1
   9              		.eabi_attribute 30, 1
  10              		.eabi_attribute 34, 0
  11              		.eabi_attribute 18, 4
  12              		.code	16
  13              		.file	"XBee_UART.c"
  14              		.text
  15              	.Ltext0:
  16              		.cfi_sections	.debug_frame
  17              		.section	.text.XBee_UartInit,"ax",%progbits
  18              		.align	2
  19              		.global	XBee_UartInit
  20              		.code	16
  21              		.thumb_func
  22              		.type	XBee_UartInit, %function
  23              	XBee_UartInit:
  24              	.LFB0:
  25              		.file 1 ".\\Generated_Source\\PSoC4\\XBee_UART.c"
   1:.\Generated_Source\PSoC4/XBee_UART.c **** /*******************************************************************************
   2:.\Generated_Source\PSoC4/XBee_UART.c **** * File Name: XBee_UART.c
   3:.\Generated_Source\PSoC4/XBee_UART.c **** * Version 3.0
   4:.\Generated_Source\PSoC4/XBee_UART.c **** *
   5:.\Generated_Source\PSoC4/XBee_UART.c **** * Description:
   6:.\Generated_Source\PSoC4/XBee_UART.c **** *  This file provides the source code to the API for the SCB Component in
   7:.\Generated_Source\PSoC4/XBee_UART.c **** *  UART mode.
   8:.\Generated_Source\PSoC4/XBee_UART.c **** *
   9:.\Generated_Source\PSoC4/XBee_UART.c **** * Note:
  10:.\Generated_Source\PSoC4/XBee_UART.c **** *
  11:.\Generated_Source\PSoC4/XBee_UART.c **** *******************************************************************************
  12:.\Generated_Source\PSoC4/XBee_UART.c **** * Copyright 2013-2015, Cypress Semiconductor Corporation.  All rights reserved.
  13:.\Generated_Source\PSoC4/XBee_UART.c **** * You may use this file only in accordance with the license, terms, conditions,
  14:.\Generated_Source\PSoC4/XBee_UART.c **** * disclaimers, and limitations in the end user license agreement accompanying
  15:.\Generated_Source\PSoC4/XBee_UART.c **** * the software package with which this file was provided.
  16:.\Generated_Source\PSoC4/XBee_UART.c **** *******************************************************************************/
  17:.\Generated_Source\PSoC4/XBee_UART.c **** 
  18:.\Generated_Source\PSoC4/XBee_UART.c **** #include "XBee_PVT.h"
  19:.\Generated_Source\PSoC4/XBee_UART.c **** #include "XBee_SPI_UART_PVT.h"
  20:.\Generated_Source\PSoC4/XBee_UART.c **** #include "cyapicallbacks.h"
  21:.\Generated_Source\PSoC4/XBee_UART.c **** 
  22:.\Generated_Source\PSoC4/XBee_UART.c **** #if(XBee_SCB_MODE_UNCONFIG_CONST_CFG)
  23:.\Generated_Source\PSoC4/XBee_UART.c **** 
  24:.\Generated_Source\PSoC4/XBee_UART.c ****     /***************************************
  25:.\Generated_Source\PSoC4/XBee_UART.c ****     *  Configuration Structure Initialization
  26:.\Generated_Source\PSoC4/XBee_UART.c ****     ***************************************/
  27:.\Generated_Source\PSoC4/XBee_UART.c **** 
  28:.\Generated_Source\PSoC4/XBee_UART.c ****     const XBee_UART_INIT_STRUCT XBee_configUart =
  29:.\Generated_Source\PSoC4/XBee_UART.c ****     {
  30:.\Generated_Source\PSoC4/XBee_UART.c ****         XBee_UART_SUB_MODE,
  31:.\Generated_Source\PSoC4/XBee_UART.c ****         XBee_UART_DIRECTION,
  32:.\Generated_Source\PSoC4/XBee_UART.c ****         XBee_UART_DATA_BITS_NUM,
ARM GAS  C:\Users\Dylan\AppData\Local\Temp\ccOtUxRE.s 			page 2


  33:.\Generated_Source\PSoC4/XBee_UART.c ****         XBee_UART_PARITY_TYPE,
  34:.\Generated_Source\PSoC4/XBee_UART.c ****         XBee_UART_STOP_BITS_NUM,
  35:.\Generated_Source\PSoC4/XBee_UART.c ****         XBee_UART_OVS_FACTOR,
  36:.\Generated_Source\PSoC4/XBee_UART.c ****         XBee_UART_IRDA_LOW_POWER,
  37:.\Generated_Source\PSoC4/XBee_UART.c ****         XBee_UART_MEDIAN_FILTER_ENABLE,
  38:.\Generated_Source\PSoC4/XBee_UART.c ****         XBee_UART_RETRY_ON_NACK,
  39:.\Generated_Source\PSoC4/XBee_UART.c ****         XBee_UART_IRDA_POLARITY,
  40:.\Generated_Source\PSoC4/XBee_UART.c ****         XBee_UART_DROP_ON_PARITY_ERR,
  41:.\Generated_Source\PSoC4/XBee_UART.c ****         XBee_UART_DROP_ON_FRAME_ERR,
  42:.\Generated_Source\PSoC4/XBee_UART.c ****         XBee_UART_WAKE_ENABLE,
  43:.\Generated_Source\PSoC4/XBee_UART.c ****         0u,
  44:.\Generated_Source\PSoC4/XBee_UART.c ****         NULL,
  45:.\Generated_Source\PSoC4/XBee_UART.c ****         0u,
  46:.\Generated_Source\PSoC4/XBee_UART.c ****         NULL,
  47:.\Generated_Source\PSoC4/XBee_UART.c ****         XBee_UART_MP_MODE_ENABLE,
  48:.\Generated_Source\PSoC4/XBee_UART.c ****         XBee_UART_MP_ACCEPT_ADDRESS,
  49:.\Generated_Source\PSoC4/XBee_UART.c ****         XBee_UART_MP_RX_ADDRESS,
  50:.\Generated_Source\PSoC4/XBee_UART.c ****         XBee_UART_MP_RX_ADDRESS_MASK,
  51:.\Generated_Source\PSoC4/XBee_UART.c ****         (uint32) XBee_SCB_IRQ_INTERNAL,
  52:.\Generated_Source\PSoC4/XBee_UART.c ****         XBee_UART_INTR_RX_MASK,
  53:.\Generated_Source\PSoC4/XBee_UART.c ****         XBee_UART_RX_TRIGGER_LEVEL,
  54:.\Generated_Source\PSoC4/XBee_UART.c ****         XBee_UART_INTR_TX_MASK,
  55:.\Generated_Source\PSoC4/XBee_UART.c ****         XBee_UART_TX_TRIGGER_LEVEL,
  56:.\Generated_Source\PSoC4/XBee_UART.c ****         (uint8) XBee_UART_BYTE_MODE_ENABLE,
  57:.\Generated_Source\PSoC4/XBee_UART.c ****         (uint8) XBee_UART_CTS_ENABLE,
  58:.\Generated_Source\PSoC4/XBee_UART.c ****         (uint8) XBee_UART_CTS_POLARITY,
  59:.\Generated_Source\PSoC4/XBee_UART.c ****         (uint8) XBee_UART_RTS_POLARITY,
  60:.\Generated_Source\PSoC4/XBee_UART.c ****         (uint8) XBee_UART_RTS_FIFO_LEVEL
  61:.\Generated_Source\PSoC4/XBee_UART.c ****     };
  62:.\Generated_Source\PSoC4/XBee_UART.c **** 
  63:.\Generated_Source\PSoC4/XBee_UART.c **** 
  64:.\Generated_Source\PSoC4/XBee_UART.c ****     /*******************************************************************************
  65:.\Generated_Source\PSoC4/XBee_UART.c ****     * Function Name: XBee_UartInit
  66:.\Generated_Source\PSoC4/XBee_UART.c ****     ********************************************************************************
  67:.\Generated_Source\PSoC4/XBee_UART.c ****     *
  68:.\Generated_Source\PSoC4/XBee_UART.c ****     * Summary:
  69:.\Generated_Source\PSoC4/XBee_UART.c ****     *  Configures the SCB for the UART operation.
  70:.\Generated_Source\PSoC4/XBee_UART.c ****     *
  71:.\Generated_Source\PSoC4/XBee_UART.c ****     * Parameters:
  72:.\Generated_Source\PSoC4/XBee_UART.c ****     *  config:  Pointer to a structure that contains the following ordered list of
  73:.\Generated_Source\PSoC4/XBee_UART.c ****     *           fields. These fields match the selections available in the
  74:.\Generated_Source\PSoC4/XBee_UART.c ****     *           customizer.
  75:.\Generated_Source\PSoC4/XBee_UART.c ****     *
  76:.\Generated_Source\PSoC4/XBee_UART.c ****     * Return:
  77:.\Generated_Source\PSoC4/XBee_UART.c ****     *  None
  78:.\Generated_Source\PSoC4/XBee_UART.c ****     *
  79:.\Generated_Source\PSoC4/XBee_UART.c ****     *******************************************************************************/
  80:.\Generated_Source\PSoC4/XBee_UART.c ****     void XBee_UartInit(const XBee_UART_INIT_STRUCT *config)
  81:.\Generated_Source\PSoC4/XBee_UART.c ****     {
  82:.\Generated_Source\PSoC4/XBee_UART.c ****         uint32 pinsConfig;
  83:.\Generated_Source\PSoC4/XBee_UART.c **** 
  84:.\Generated_Source\PSoC4/XBee_UART.c ****         if (NULL == config)
  85:.\Generated_Source\PSoC4/XBee_UART.c ****         {
  86:.\Generated_Source\PSoC4/XBee_UART.c ****             CYASSERT(0u != 0u); /* Halt execution due to bad function parameter */
  87:.\Generated_Source\PSoC4/XBee_UART.c ****         }
  88:.\Generated_Source\PSoC4/XBee_UART.c ****         else
  89:.\Generated_Source\PSoC4/XBee_UART.c ****         {
ARM GAS  C:\Users\Dylan\AppData\Local\Temp\ccOtUxRE.s 			page 3


  90:.\Generated_Source\PSoC4/XBee_UART.c ****             /* Get direction to configure UART pins: TX, RX or TX+RX */
  91:.\Generated_Source\PSoC4/XBee_UART.c ****             pinsConfig  = config->direction;
  92:.\Generated_Source\PSoC4/XBee_UART.c **** 
  93:.\Generated_Source\PSoC4/XBee_UART.c ****         #if !(XBee_CY_SCBIP_V0 || XBee_CY_SCBIP_V1)
  94:.\Generated_Source\PSoC4/XBee_UART.c ****             /* Add RTS and CTS pins to configure */
  95:.\Generated_Source\PSoC4/XBee_UART.c ****             pinsConfig |= (0u != config->rtsRxFifoLevel) ? (XBee_UART_RTS_PIN_ENABLE) : (0u);
  96:.\Generated_Source\PSoC4/XBee_UART.c ****             pinsConfig |= (0u != config->enableCts)      ? (XBee_UART_CTS_PIN_ENABLE) : (0u);
  97:.\Generated_Source\PSoC4/XBee_UART.c ****         #endif /* !(XBee_CY_SCBIP_V0 || XBee_CY_SCBIP_V1) */
  98:.\Generated_Source\PSoC4/XBee_UART.c **** 
  99:.\Generated_Source\PSoC4/XBee_UART.c ****             /* Configure pins */
 100:.\Generated_Source\PSoC4/XBee_UART.c ****             XBee_SetPins(XBee_SCB_MODE_UART, config->mode, pinsConfig);
 101:.\Generated_Source\PSoC4/XBee_UART.c **** 
 102:.\Generated_Source\PSoC4/XBee_UART.c ****             /* Store internal configuration */
 103:.\Generated_Source\PSoC4/XBee_UART.c ****             XBee_scbMode       = (uint8) XBee_SCB_MODE_UART;
 104:.\Generated_Source\PSoC4/XBee_UART.c ****             XBee_scbEnableWake = (uint8) config->enableWake;
 105:.\Generated_Source\PSoC4/XBee_UART.c ****             XBee_scbEnableIntr = (uint8) config->enableInterrupt;
 106:.\Generated_Source\PSoC4/XBee_UART.c **** 
 107:.\Generated_Source\PSoC4/XBee_UART.c ****             /* Set RX direction internal variables */
 108:.\Generated_Source\PSoC4/XBee_UART.c ****             XBee_rxBuffer      =         config->rxBuffer;
 109:.\Generated_Source\PSoC4/XBee_UART.c ****             XBee_rxDataBits    = (uint8) config->dataBits;
 110:.\Generated_Source\PSoC4/XBee_UART.c ****             XBee_rxBufferSize  = (uint8) config->rxBufferSize;
 111:.\Generated_Source\PSoC4/XBee_UART.c **** 
 112:.\Generated_Source\PSoC4/XBee_UART.c ****             /* Set TX direction internal variables */
 113:.\Generated_Source\PSoC4/XBee_UART.c ****             XBee_txBuffer      =         config->txBuffer;
 114:.\Generated_Source\PSoC4/XBee_UART.c ****             XBee_txDataBits    = (uint8) config->dataBits;
 115:.\Generated_Source\PSoC4/XBee_UART.c ****             XBee_txBufferSize  = (uint8) config->txBufferSize;
 116:.\Generated_Source\PSoC4/XBee_UART.c **** 
 117:.\Generated_Source\PSoC4/XBee_UART.c ****             /* Configure UART interface */
 118:.\Generated_Source\PSoC4/XBee_UART.c ****             if(XBee_UART_MODE_IRDA == config->mode)
 119:.\Generated_Source\PSoC4/XBee_UART.c ****             {
 120:.\Generated_Source\PSoC4/XBee_UART.c ****                 /* OVS settings: IrDA */
 121:.\Generated_Source\PSoC4/XBee_UART.c ****                 XBee_CTRL_REG  = ((0u != config->enableIrdaLowPower) ?
 122:.\Generated_Source\PSoC4/XBee_UART.c ****                                                 (XBee_UART_GET_CTRL_OVS_IRDA_LP(config->oversample)
 123:.\Generated_Source\PSoC4/XBee_UART.c ****                                                 (XBee_CTRL_OVS_IRDA_OVS16));
 124:.\Generated_Source\PSoC4/XBee_UART.c ****             }
 125:.\Generated_Source\PSoC4/XBee_UART.c ****             else
 126:.\Generated_Source\PSoC4/XBee_UART.c ****             {
 127:.\Generated_Source\PSoC4/XBee_UART.c ****                 /* OVS settings: UART and SmartCard */
 128:.\Generated_Source\PSoC4/XBee_UART.c ****                 XBee_CTRL_REG  = XBee_GET_CTRL_OVS(config->oversample);
 129:.\Generated_Source\PSoC4/XBee_UART.c ****             }
 130:.\Generated_Source\PSoC4/XBee_UART.c **** 
 131:.\Generated_Source\PSoC4/XBee_UART.c ****             XBee_CTRL_REG     |= XBee_GET_CTRL_BYTE_MODE  (config->enableByteMode)      |
 132:.\Generated_Source\PSoC4/XBee_UART.c ****                                              XBee_GET_CTRL_ADDR_ACCEPT(config->multiprocAcceptAddr)
 133:.\Generated_Source\PSoC4/XBee_UART.c ****                                              XBee_CTRL_UART;
 134:.\Generated_Source\PSoC4/XBee_UART.c **** 
 135:.\Generated_Source\PSoC4/XBee_UART.c ****             /* Configure sub-mode: UART, SmartCard or IrDA */
 136:.\Generated_Source\PSoC4/XBee_UART.c ****             XBee_UART_CTRL_REG = XBee_GET_UART_CTRL_MODE(config->mode);
 137:.\Generated_Source\PSoC4/XBee_UART.c **** 
 138:.\Generated_Source\PSoC4/XBee_UART.c ****             /* Configure RX direction */
 139:.\Generated_Source\PSoC4/XBee_UART.c ****             XBee_UART_RX_CTRL_REG = XBee_GET_UART_RX_CTRL_MODE(config->stopBits)              |
 140:.\Generated_Source\PSoC4/XBee_UART.c ****                                         XBee_GET_UART_RX_CTRL_POLARITY(config->enableInvertedRx)   
 141:.\Generated_Source\PSoC4/XBee_UART.c ****                                         XBee_GET_UART_RX_CTRL_MP_MODE(config->enableMultiproc)     
 142:.\Generated_Source\PSoC4/XBee_UART.c ****                                         XBee_GET_UART_RX_CTRL_DROP_ON_PARITY_ERR(config->dropOnPari
 143:.\Generated_Source\PSoC4/XBee_UART.c ****                                         XBee_GET_UART_RX_CTRL_DROP_ON_FRAME_ERR(config->dropOnFrame
 144:.\Generated_Source\PSoC4/XBee_UART.c **** 
 145:.\Generated_Source\PSoC4/XBee_UART.c ****             if(XBee_UART_PARITY_NONE != config->parity)
 146:.\Generated_Source\PSoC4/XBee_UART.c ****             {
ARM GAS  C:\Users\Dylan\AppData\Local\Temp\ccOtUxRE.s 			page 4


 147:.\Generated_Source\PSoC4/XBee_UART.c ****                XBee_UART_RX_CTRL_REG |= XBee_GET_UART_RX_CTRL_PARITY(config->parity) |
 148:.\Generated_Source\PSoC4/XBee_UART.c ****                                                     XBee_UART_RX_CTRL_PARITY_ENABLED;
 149:.\Generated_Source\PSoC4/XBee_UART.c ****             }
 150:.\Generated_Source\PSoC4/XBee_UART.c **** 
 151:.\Generated_Source\PSoC4/XBee_UART.c ****             XBee_RX_CTRL_REG      = XBee_GET_RX_CTRL_DATA_WIDTH(config->dataBits)       |
 152:.\Generated_Source\PSoC4/XBee_UART.c ****                                                 XBee_GET_RX_CTRL_MEDIAN(config->enableMedianFilter)
 153:.\Generated_Source\PSoC4/XBee_UART.c ****                                                 XBee_GET_UART_RX_CTRL_ENABLED(config->direction);
 154:.\Generated_Source\PSoC4/XBee_UART.c **** 
 155:.\Generated_Source\PSoC4/XBee_UART.c ****             XBee_RX_FIFO_CTRL_REG = XBee_GET_RX_FIFO_CTRL_TRIGGER_LEVEL(config->rxTriggerLevel);
 156:.\Generated_Source\PSoC4/XBee_UART.c **** 
 157:.\Generated_Source\PSoC4/XBee_UART.c ****             /* Configure MP address */
 158:.\Generated_Source\PSoC4/XBee_UART.c ****             XBee_RX_MATCH_REG     = XBee_GET_RX_MATCH_ADDR(config->multiprocAddr) |
 159:.\Generated_Source\PSoC4/XBee_UART.c ****                                                 XBee_GET_RX_MATCH_MASK(config->multiprocAddrMask);
 160:.\Generated_Source\PSoC4/XBee_UART.c **** 
 161:.\Generated_Source\PSoC4/XBee_UART.c ****             /* Configure RX direction */
 162:.\Generated_Source\PSoC4/XBee_UART.c ****             XBee_UART_TX_CTRL_REG = XBee_GET_UART_TX_CTRL_MODE(config->stopBits) |
 163:.\Generated_Source\PSoC4/XBee_UART.c ****                                                 XBee_GET_UART_TX_CTRL_RETRY_NACK(config->enableRetr
 164:.\Generated_Source\PSoC4/XBee_UART.c **** 
 165:.\Generated_Source\PSoC4/XBee_UART.c ****             if(XBee_UART_PARITY_NONE != config->parity)
 166:.\Generated_Source\PSoC4/XBee_UART.c ****             {
 167:.\Generated_Source\PSoC4/XBee_UART.c ****                XBee_UART_TX_CTRL_REG |= XBee_GET_UART_TX_CTRL_PARITY(config->parity) |
 168:.\Generated_Source\PSoC4/XBee_UART.c ****                                                     XBee_UART_TX_CTRL_PARITY_ENABLED;
 169:.\Generated_Source\PSoC4/XBee_UART.c ****             }
 170:.\Generated_Source\PSoC4/XBee_UART.c **** 
 171:.\Generated_Source\PSoC4/XBee_UART.c ****             XBee_TX_CTRL_REG      = XBee_GET_TX_CTRL_DATA_WIDTH(config->dataBits)    |
 172:.\Generated_Source\PSoC4/XBee_UART.c ****                                                 XBee_GET_UART_TX_CTRL_ENABLED(config->direction);
 173:.\Generated_Source\PSoC4/XBee_UART.c **** 
 174:.\Generated_Source\PSoC4/XBee_UART.c ****             XBee_TX_FIFO_CTRL_REG = XBee_GET_TX_FIFO_CTRL_TRIGGER_LEVEL(config->txTriggerLevel);
 175:.\Generated_Source\PSoC4/XBee_UART.c **** 
 176:.\Generated_Source\PSoC4/XBee_UART.c ****         #if !(XBee_CY_SCBIP_V0 || XBee_CY_SCBIP_V1)
 177:.\Generated_Source\PSoC4/XBee_UART.c ****             XBee_UART_FLOW_CTRL_REG = XBee_GET_UART_FLOW_CTRL_CTS_ENABLE(config->enableCts) | \
 178:.\Generated_Source\PSoC4/XBee_UART.c ****                                             XBee_GET_UART_FLOW_CTRL_CTS_POLARITY (config->ctsPolari
 179:.\Generated_Source\PSoC4/XBee_UART.c ****                                             XBee_GET_UART_FLOW_CTRL_RTS_POLARITY (config->rtsPolari
 180:.\Generated_Source\PSoC4/XBee_UART.c ****                                             XBee_GET_UART_FLOW_CTRL_TRIGGER_LEVEL(config->rtsRxFifo
 181:.\Generated_Source\PSoC4/XBee_UART.c ****         #endif /* !(XBee_CY_SCBIP_V0 || XBee_CY_SCBIP_V1) */
 182:.\Generated_Source\PSoC4/XBee_UART.c **** 
 183:.\Generated_Source\PSoC4/XBee_UART.c ****             /* Configure interrupt with UART handler but do not enable it */
 184:.\Generated_Source\PSoC4/XBee_UART.c ****             CyIntDisable    (XBee_ISR_NUMBER);
 185:.\Generated_Source\PSoC4/XBee_UART.c ****             CyIntSetPriority(XBee_ISR_NUMBER, XBee_ISR_PRIORITY);
 186:.\Generated_Source\PSoC4/XBee_UART.c ****             (void) CyIntSetVector(XBee_ISR_NUMBER, &XBee_SPI_UART_ISR);
 187:.\Generated_Source\PSoC4/XBee_UART.c **** 
 188:.\Generated_Source\PSoC4/XBee_UART.c ****             /* Configure WAKE interrupt */
 189:.\Generated_Source\PSoC4/XBee_UART.c ****         #if(XBee_UART_RX_WAKEUP_IRQ)
 190:.\Generated_Source\PSoC4/XBee_UART.c ****             CyIntDisable    (XBee_RX_WAKE_ISR_NUMBER);
 191:.\Generated_Source\PSoC4/XBee_UART.c ****             CyIntSetPriority(XBee_RX_WAKE_ISR_NUMBER, XBee_RX_WAKE_ISR_PRIORITY);
 192:.\Generated_Source\PSoC4/XBee_UART.c ****             (void) CyIntSetVector(XBee_RX_WAKE_ISR_NUMBER, &XBee_UART_WAKEUP_ISR);
 193:.\Generated_Source\PSoC4/XBee_UART.c ****         #endif /* (XBee_UART_RX_WAKEUP_IRQ) */
 194:.\Generated_Source\PSoC4/XBee_UART.c **** 
 195:.\Generated_Source\PSoC4/XBee_UART.c ****             /* Configure interrupt sources */
 196:.\Generated_Source\PSoC4/XBee_UART.c ****             XBee_INTR_I2C_EC_MASK_REG = XBee_NO_INTR_SOURCES;
 197:.\Generated_Source\PSoC4/XBee_UART.c ****             XBee_INTR_SPI_EC_MASK_REG = XBee_NO_INTR_SOURCES;
 198:.\Generated_Source\PSoC4/XBee_UART.c ****             XBee_INTR_SLAVE_MASK_REG  = XBee_NO_INTR_SOURCES;
 199:.\Generated_Source\PSoC4/XBee_UART.c ****             XBee_INTR_MASTER_MASK_REG = XBee_NO_INTR_SOURCES;
 200:.\Generated_Source\PSoC4/XBee_UART.c ****             XBee_INTR_RX_MASK_REG     = config->rxInterruptMask;
 201:.\Generated_Source\PSoC4/XBee_UART.c ****             XBee_INTR_TX_MASK_REG     = config->txInterruptMask;
 202:.\Generated_Source\PSoC4/XBee_UART.c **** 
 203:.\Generated_Source\PSoC4/XBee_UART.c ****             /* Clear RX buffer indexes */
ARM GAS  C:\Users\Dylan\AppData\Local\Temp\ccOtUxRE.s 			page 5


 204:.\Generated_Source\PSoC4/XBee_UART.c ****             XBee_rxBufferHead     = 0u;
 205:.\Generated_Source\PSoC4/XBee_UART.c ****             XBee_rxBufferTail     = 0u;
 206:.\Generated_Source\PSoC4/XBee_UART.c ****             XBee_rxBufferOverflow = 0u;
 207:.\Generated_Source\PSoC4/XBee_UART.c **** 
 208:.\Generated_Source\PSoC4/XBee_UART.c ****             /* Clear TX buffer indexes */
 209:.\Generated_Source\PSoC4/XBee_UART.c ****             XBee_txBufferHead = 0u;
 210:.\Generated_Source\PSoC4/XBee_UART.c ****             XBee_txBufferTail = 0u;
 211:.\Generated_Source\PSoC4/XBee_UART.c ****         }
 212:.\Generated_Source\PSoC4/XBee_UART.c ****     }
 213:.\Generated_Source\PSoC4/XBee_UART.c **** 
 214:.\Generated_Source\PSoC4/XBee_UART.c **** #else
 215:.\Generated_Source\PSoC4/XBee_UART.c **** 
 216:.\Generated_Source\PSoC4/XBee_UART.c ****     /*******************************************************************************
 217:.\Generated_Source\PSoC4/XBee_UART.c ****     * Function Name: XBee_UartInit
 218:.\Generated_Source\PSoC4/XBee_UART.c ****     ********************************************************************************
 219:.\Generated_Source\PSoC4/XBee_UART.c ****     *
 220:.\Generated_Source\PSoC4/XBee_UART.c ****     * Summary:
 221:.\Generated_Source\PSoC4/XBee_UART.c ****     *  Configures the SCB for the UART operation.
 222:.\Generated_Source\PSoC4/XBee_UART.c ****     *
 223:.\Generated_Source\PSoC4/XBee_UART.c ****     * Parameters:
 224:.\Generated_Source\PSoC4/XBee_UART.c ****     *  None
 225:.\Generated_Source\PSoC4/XBee_UART.c ****     *
 226:.\Generated_Source\PSoC4/XBee_UART.c ****     * Return:
 227:.\Generated_Source\PSoC4/XBee_UART.c ****     *  None
 228:.\Generated_Source\PSoC4/XBee_UART.c ****     *
 229:.\Generated_Source\PSoC4/XBee_UART.c ****     *******************************************************************************/
 230:.\Generated_Source\PSoC4/XBee_UART.c ****     void XBee_UartInit(void)
 231:.\Generated_Source\PSoC4/XBee_UART.c ****     {
  26              		.loc 1 231 0
  27              		.cfi_startproc
 232:.\Generated_Source\PSoC4/XBee_UART.c ****         /* Configure UART interface */
 233:.\Generated_Source\PSoC4/XBee_UART.c ****         XBee_CTRL_REG = XBee_UART_DEFAULT_CTRL;
  28              		.loc 1 233 0
  29 0000 124A     		ldr	r2, .L2
  30 0002 134B     		ldr	r3, .L2+4
  31 0004 1A60     		str	r2, [r3]
 234:.\Generated_Source\PSoC4/XBee_UART.c **** 
 235:.\Generated_Source\PSoC4/XBee_UART.c ****         /* Configure sub-mode: UART, SmartCard or IrDA */
 236:.\Generated_Source\PSoC4/XBee_UART.c ****         XBee_UART_CTRL_REG = XBee_UART_DEFAULT_UART_CTRL;
  32              		.loc 1 236 0
  33 0006 0023     		mov	r3, #0
  34 0008 124A     		ldr	r2, .L2+8
  35 000a 1360     		str	r3, [r2]
 237:.\Generated_Source\PSoC4/XBee_UART.c **** 
 238:.\Generated_Source\PSoC4/XBee_UART.c ****         /* Configure RX direction */
 239:.\Generated_Source\PSoC4/XBee_UART.c ****         XBee_UART_RX_CTRL_REG = XBee_UART_DEFAULT_UART_RX_CTRL;
  36              		.loc 1 239 0
  37 000c 0322     		mov	r2, #3
  38 000e 1249     		ldr	r1, .L2+12
  39 0010 0A60     		str	r2, [r1]
 240:.\Generated_Source\PSoC4/XBee_UART.c ****         XBee_RX_CTRL_REG      = XBee_UART_DEFAULT_RX_CTRL;
  40              		.loc 1 240 0
  41 0012 1248     		ldr	r0, .L2+16
  42 0014 1249     		ldr	r1, .L2+20
  43 0016 0860     		str	r0, [r1]
 241:.\Generated_Source\PSoC4/XBee_UART.c ****         XBee_RX_FIFO_CTRL_REG = XBee_UART_DEFAULT_RX_FIFO_CTRL;
  44              		.loc 1 241 0
ARM GAS  C:\Users\Dylan\AppData\Local\Temp\ccOtUxRE.s 			page 6


  45 0018 0720     		mov	r0, #7
  46 001a 1249     		ldr	r1, .L2+24
  47 001c 0860     		str	r0, [r1]
 242:.\Generated_Source\PSoC4/XBee_UART.c ****         XBee_RX_MATCH_REG     = XBee_UART_DEFAULT_RX_MATCH_REG;
  48              		.loc 1 242 0
  49 001e 1249     		ldr	r1, .L2+28
  50 0020 0B60     		str	r3, [r1]
 243:.\Generated_Source\PSoC4/XBee_UART.c **** 
 244:.\Generated_Source\PSoC4/XBee_UART.c ****         /* Configure TX direction */
 245:.\Generated_Source\PSoC4/XBee_UART.c ****         XBee_UART_TX_CTRL_REG = XBee_UART_DEFAULT_UART_TX_CTRL;
  51              		.loc 1 245 0
  52 0022 1249     		ldr	r1, .L2+32
  53 0024 0A60     		str	r2, [r1]
 246:.\Generated_Source\PSoC4/XBee_UART.c ****         XBee_TX_CTRL_REG      = XBee_UART_DEFAULT_TX_CTRL;
  54              		.loc 1 246 0
  55 0026 1249     		ldr	r1, .L2+36
  56 0028 124A     		ldr	r2, .L2+40
  57 002a 1160     		str	r1, [r2]
 247:.\Generated_Source\PSoC4/XBee_UART.c ****         XBee_TX_FIFO_CTRL_REG = XBee_UART_DEFAULT_TX_FIFO_CTRL;
  58              		.loc 1 247 0
  59 002c 124A     		ldr	r2, .L2+44
  60 002e 1360     		str	r3, [r2]
 248:.\Generated_Source\PSoC4/XBee_UART.c **** 
 249:.\Generated_Source\PSoC4/XBee_UART.c ****     #if !(XBee_CY_SCBIP_V0 || XBee_CY_SCBIP_V1)
 250:.\Generated_Source\PSoC4/XBee_UART.c ****         XBee_UART_FLOW_CTRL_REG = XBee_UART_DEFAULT_FLOW_CTRL;
 251:.\Generated_Source\PSoC4/XBee_UART.c ****     #endif /* !(XBee_CY_SCBIP_V0 || XBee_CY_SCBIP_V1) */
 252:.\Generated_Source\PSoC4/XBee_UART.c **** 
 253:.\Generated_Source\PSoC4/XBee_UART.c ****         /* Configure interrupt with UART handler but do not enable it */
 254:.\Generated_Source\PSoC4/XBee_UART.c ****     #if(XBee_SCB_IRQ_INTERNAL)
 255:.\Generated_Source\PSoC4/XBee_UART.c ****         CyIntDisable    (XBee_ISR_NUMBER);
 256:.\Generated_Source\PSoC4/XBee_UART.c ****         CyIntSetPriority(XBee_ISR_NUMBER, XBee_ISR_PRIORITY);
 257:.\Generated_Source\PSoC4/XBee_UART.c ****         (void) CyIntSetVector(XBee_ISR_NUMBER, &XBee_SPI_UART_ISR);
 258:.\Generated_Source\PSoC4/XBee_UART.c ****     #endif /* (XBee_SCB_IRQ_INTERNAL) */
 259:.\Generated_Source\PSoC4/XBee_UART.c **** 
 260:.\Generated_Source\PSoC4/XBee_UART.c ****         /* Configure WAKE interrupt */
 261:.\Generated_Source\PSoC4/XBee_UART.c ****     #if(XBee_UART_RX_WAKEUP_IRQ)
 262:.\Generated_Source\PSoC4/XBee_UART.c ****         CyIntDisable    (XBee_RX_WAKE_ISR_NUMBER);
 263:.\Generated_Source\PSoC4/XBee_UART.c ****         CyIntSetPriority(XBee_RX_WAKE_ISR_NUMBER, XBee_RX_WAKE_ISR_PRIORITY);
 264:.\Generated_Source\PSoC4/XBee_UART.c ****         (void) CyIntSetVector(XBee_RX_WAKE_ISR_NUMBER, &XBee_UART_WAKEUP_ISR);
 265:.\Generated_Source\PSoC4/XBee_UART.c ****     #endif /* (XBee_UART_RX_WAKEUP_IRQ) */
 266:.\Generated_Source\PSoC4/XBee_UART.c **** 
 267:.\Generated_Source\PSoC4/XBee_UART.c ****         /* Configure interrupt sources */
 268:.\Generated_Source\PSoC4/XBee_UART.c ****         XBee_INTR_I2C_EC_MASK_REG = XBee_UART_DEFAULT_INTR_I2C_EC_MASK;
  61              		.loc 1 268 0
  62 0030 124A     		ldr	r2, .L2+48
  63 0032 1360     		str	r3, [r2]
 269:.\Generated_Source\PSoC4/XBee_UART.c ****         XBee_INTR_SPI_EC_MASK_REG = XBee_UART_DEFAULT_INTR_SPI_EC_MASK;
  64              		.loc 1 269 0
  65 0034 124A     		ldr	r2, .L2+52
  66 0036 1360     		str	r3, [r2]
 270:.\Generated_Source\PSoC4/XBee_UART.c ****         XBee_INTR_SLAVE_MASK_REG  = XBee_UART_DEFAULT_INTR_SLAVE_MASK;
  67              		.loc 1 270 0
  68 0038 124A     		ldr	r2, .L2+56
  69 003a 1360     		str	r3, [r2]
 271:.\Generated_Source\PSoC4/XBee_UART.c ****         XBee_INTR_MASTER_MASK_REG = XBee_UART_DEFAULT_INTR_MASTER_MASK;
  70              		.loc 1 271 0
  71 003c 124A     		ldr	r2, .L2+60
ARM GAS  C:\Users\Dylan\AppData\Local\Temp\ccOtUxRE.s 			page 7


  72 003e 1360     		str	r3, [r2]
 272:.\Generated_Source\PSoC4/XBee_UART.c ****         XBee_INTR_RX_MASK_REG     = XBee_UART_DEFAULT_INTR_RX_MASK;
  73              		.loc 1 272 0
  74 0040 124A     		ldr	r2, .L2+64
  75 0042 1360     		str	r3, [r2]
 273:.\Generated_Source\PSoC4/XBee_UART.c ****         XBee_INTR_TX_MASK_REG     = XBee_UART_DEFAULT_INTR_TX_MASK;
  76              		.loc 1 273 0
  77 0044 124A     		ldr	r2, .L2+68
  78 0046 1360     		str	r3, [r2]
 274:.\Generated_Source\PSoC4/XBee_UART.c **** 
 275:.\Generated_Source\PSoC4/XBee_UART.c ****     #if(XBee_INTERNAL_RX_SW_BUFFER_CONST)
 276:.\Generated_Source\PSoC4/XBee_UART.c ****         XBee_rxBufferHead     = 0u;
 277:.\Generated_Source\PSoC4/XBee_UART.c ****         XBee_rxBufferTail     = 0u;
 278:.\Generated_Source\PSoC4/XBee_UART.c ****         XBee_rxBufferOverflow = 0u;
 279:.\Generated_Source\PSoC4/XBee_UART.c ****     #endif /* (XBee_INTERNAL_RX_SW_BUFFER_CONST) */
 280:.\Generated_Source\PSoC4/XBee_UART.c **** 
 281:.\Generated_Source\PSoC4/XBee_UART.c ****     #if(XBee_INTERNAL_TX_SW_BUFFER_CONST)
 282:.\Generated_Source\PSoC4/XBee_UART.c ****         XBee_txBufferHead = 0u;
 283:.\Generated_Source\PSoC4/XBee_UART.c ****         XBee_txBufferTail = 0u;
 284:.\Generated_Source\PSoC4/XBee_UART.c ****     #endif /* (XBee_INTERNAL_TX_SW_BUFFER_CONST) */
 285:.\Generated_Source\PSoC4/XBee_UART.c ****     }
  79              		.loc 1 285 0
  80              		@ sp needed
  81 0048 7047     		bx	lr
  82              	.L3:
  83 004a C046     		.align	2
  84              	.L2:
  85 004c 0F000002 		.word	33554447
  86 0050 00000740 		.word	1074200576
  87 0054 40000740 		.word	1074200640
  88 0058 48000740 		.word	1074200648
  89 005c 07020080 		.word	-2147483129
  90 0060 00030740 		.word	1074201344
  91 0064 04030740 		.word	1074201348
  92 0068 10030740 		.word	1074201360
  93 006c 44000740 		.word	1074200644
  94 0070 07000080 		.word	-2147483641
  95 0074 00020740 		.word	1074201088
  96 0078 04020740 		.word	1074201092
  97 007c 880E0740 		.word	1074204296
  98 0080 C80E0740 		.word	1074204360
  99 0084 480F0740 		.word	1074204488
 100 0088 080F0740 		.word	1074204424
 101 008c C80F0740 		.word	1074204616
 102 0090 880F0740 		.word	1074204552
 103              		.cfi_endproc
 104              	.LFE0:
 105              		.size	XBee_UartInit, .-XBee_UartInit
 106              		.section	.text.XBee_UartPostEnable,"ax",%progbits
 107              		.align	2
 108              		.global	XBee_UartPostEnable
 109              		.code	16
 110              		.thumb_func
 111              		.type	XBee_UartPostEnable, %function
 112              	XBee_UartPostEnable:
 113              	.LFB1:
 286:.\Generated_Source\PSoC4/XBee_UART.c **** #endif /* (XBee_SCB_MODE_UNCONFIG_CONST_CFG) */
ARM GAS  C:\Users\Dylan\AppData\Local\Temp\ccOtUxRE.s 			page 8


 287:.\Generated_Source\PSoC4/XBee_UART.c **** 
 288:.\Generated_Source\PSoC4/XBee_UART.c **** 
 289:.\Generated_Source\PSoC4/XBee_UART.c **** /*******************************************************************************
 290:.\Generated_Source\PSoC4/XBee_UART.c **** * Function Name: XBee_UartPostEnable
 291:.\Generated_Source\PSoC4/XBee_UART.c **** ********************************************************************************
 292:.\Generated_Source\PSoC4/XBee_UART.c **** *
 293:.\Generated_Source\PSoC4/XBee_UART.c **** * Summary:
 294:.\Generated_Source\PSoC4/XBee_UART.c **** *  Restores HSIOM settings for the UART output pins (TX and/or RTS) to be 
 295:.\Generated_Source\PSoC4/XBee_UART.c **** *  controlled by the SCB UART.
 296:.\Generated_Source\PSoC4/XBee_UART.c **** *
 297:.\Generated_Source\PSoC4/XBee_UART.c **** * Parameters:
 298:.\Generated_Source\PSoC4/XBee_UART.c **** *  None
 299:.\Generated_Source\PSoC4/XBee_UART.c **** *
 300:.\Generated_Source\PSoC4/XBee_UART.c **** * Return:
 301:.\Generated_Source\PSoC4/XBee_UART.c **** *  None
 302:.\Generated_Source\PSoC4/XBee_UART.c **** *
 303:.\Generated_Source\PSoC4/XBee_UART.c **** *******************************************************************************/
 304:.\Generated_Source\PSoC4/XBee_UART.c **** void XBee_UartPostEnable(void)
 305:.\Generated_Source\PSoC4/XBee_UART.c **** {
 114              		.loc 1 305 0
 115              		.cfi_startproc
 306:.\Generated_Source\PSoC4/XBee_UART.c **** #if (XBee_SCB_MODE_UNCONFIG_CONST_CFG)
 307:.\Generated_Source\PSoC4/XBee_UART.c **** 
 308:.\Generated_Source\PSoC4/XBee_UART.c **** #if (XBee_TX_SDA_MISO_PIN)
 309:.\Generated_Source\PSoC4/XBee_UART.c ****     if (XBee_CHECK_TX_SDA_MISO_PIN_USED)
 310:.\Generated_Source\PSoC4/XBee_UART.c ****     {
 311:.\Generated_Source\PSoC4/XBee_UART.c ****         /* Set SCB UART to drive the output pin */
 312:.\Generated_Source\PSoC4/XBee_UART.c ****         XBee_SET_HSIOM_SEL(XBee_TX_SDA_MISO_HSIOM_REG, XBee_TX_SDA_MISO_HSIOM_MASK,
 313:.\Generated_Source\PSoC4/XBee_UART.c ****                                        XBee_TX_SDA_MISO_HSIOM_POS, XBee_HSIOM_UART_SEL);
 314:.\Generated_Source\PSoC4/XBee_UART.c ****     }
 315:.\Generated_Source\PSoC4/XBee_UART.c **** #endif /* (XBee_TX_SDA_MISO_PIN_PIN) */
 316:.\Generated_Source\PSoC4/XBee_UART.c **** 
 317:.\Generated_Source\PSoC4/XBee_UART.c **** #if (XBee_SS0_PIN)
 318:.\Generated_Source\PSoC4/XBee_UART.c ****     if (XBee_CHECK_SS0_PIN_USED)
 319:.\Generated_Source\PSoC4/XBee_UART.c ****     {
 320:.\Generated_Source\PSoC4/XBee_UART.c ****         /* Set SCB UART to drive the output pin */
 321:.\Generated_Source\PSoC4/XBee_UART.c ****         XBee_SET_HSIOM_SEL(XBee_SS0_HSIOM_REG, XBee_SS0_HSIOM_MASK,
 322:.\Generated_Source\PSoC4/XBee_UART.c ****                                        XBee_SS0_HSIOM_POS, XBee_HSIOM_UART_SEL);
 323:.\Generated_Source\PSoC4/XBee_UART.c ****     }
 324:.\Generated_Source\PSoC4/XBee_UART.c **** #endif /* (XBee_SS0_PIN) */
 325:.\Generated_Source\PSoC4/XBee_UART.c **** 
 326:.\Generated_Source\PSoC4/XBee_UART.c **** #else
 327:.\Generated_Source\PSoC4/XBee_UART.c **** #if (XBee_UART_TX_PIN)
 328:.\Generated_Source\PSoC4/XBee_UART.c ****      /* Set SCB UART to drive the output pin */
 329:.\Generated_Source\PSoC4/XBee_UART.c ****     XBee_SET_HSIOM_SEL(XBee_TX_HSIOM_REG, XBee_TX_HSIOM_MASK,
 116              		.loc 1 329 0
 117 0000 044A     		ldr	r2, .L5
 118 0002 1168     		ldr	r1, [r2]
 119 0004 044B     		ldr	r3, .L5+4
 120 0006 0B40     		and	r3, r1
 121 0008 9021     		mov	r1, #144
 122 000a 0904     		lsl	r1, r1, #16
 123 000c 0B43     		orr	r3, r1
 124 000e 1360     		str	r3, [r2]
 330:.\Generated_Source\PSoC4/XBee_UART.c ****                                    XBee_TX_HSIOM_POS, XBee_HSIOM_UART_SEL);
 331:.\Generated_Source\PSoC4/XBee_UART.c **** #endif /* (XBee_UART_TX_PIN) */
 332:.\Generated_Source\PSoC4/XBee_UART.c **** 
ARM GAS  C:\Users\Dylan\AppData\Local\Temp\ccOtUxRE.s 			page 9


 333:.\Generated_Source\PSoC4/XBee_UART.c **** #if (XBee_UART_RTS_PIN)
 334:.\Generated_Source\PSoC4/XBee_UART.c ****     /* Set SCB UART to drive the output pin */
 335:.\Generated_Source\PSoC4/XBee_UART.c ****     XBee_SET_HSIOM_SEL(XBee_RTS_HSIOM_REG, XBee_RTS_HSIOM_MASK,
 336:.\Generated_Source\PSoC4/XBee_UART.c ****                                    XBee_RTS_HSIOM_POS, XBee_HSIOM_UART_SEL);
 337:.\Generated_Source\PSoC4/XBee_UART.c **** #endif /* (XBee_UART_RTS_PIN) */
 338:.\Generated_Source\PSoC4/XBee_UART.c **** 
 339:.\Generated_Source\PSoC4/XBee_UART.c **** #endif /* (XBee_SCB_MODE_UNCONFIG_CONST_CFG) */
 340:.\Generated_Source\PSoC4/XBee_UART.c **** }
 125              		.loc 1 340 0
 126              		@ sp needed
 127 0010 7047     		bx	lr
 128              	.L6:
 129 0012 C046     		.align	2
 130              	.L5:
 131 0014 00000140 		.word	1073807360
 132 0018 FFFF0FFF 		.word	-15728641
 133              		.cfi_endproc
 134              	.LFE1:
 135              		.size	XBee_UartPostEnable, .-XBee_UartPostEnable
 136              		.section	.text.XBee_UartStop,"ax",%progbits
 137              		.align	2
 138              		.global	XBee_UartStop
 139              		.code	16
 140              		.thumb_func
 141              		.type	XBee_UartStop, %function
 142              	XBee_UartStop:
 143              	.LFB2:
 341:.\Generated_Source\PSoC4/XBee_UART.c **** 
 342:.\Generated_Source\PSoC4/XBee_UART.c **** 
 343:.\Generated_Source\PSoC4/XBee_UART.c **** /*******************************************************************************
 344:.\Generated_Source\PSoC4/XBee_UART.c **** * Function Name: XBee_UartStop
 345:.\Generated_Source\PSoC4/XBee_UART.c **** ********************************************************************************
 346:.\Generated_Source\PSoC4/XBee_UART.c **** *
 347:.\Generated_Source\PSoC4/XBee_UART.c **** * Summary:
 348:.\Generated_Source\PSoC4/XBee_UART.c **** *  Changes the HSIOM settings for the UART output pins (TX and/or RTS) to keep
 349:.\Generated_Source\PSoC4/XBee_UART.c **** *  them inactive after the block is disabled. The output pins are controlled by
 350:.\Generated_Source\PSoC4/XBee_UART.c **** *  the GPIO data register. Also, the function disables the skip start feature to
 351:.\Generated_Source\PSoC4/XBee_UART.c **** *  not cause it to trigger after the component is enabled.
 352:.\Generated_Source\PSoC4/XBee_UART.c **** *
 353:.\Generated_Source\PSoC4/XBee_UART.c **** * Parameters:
 354:.\Generated_Source\PSoC4/XBee_UART.c **** *  None
 355:.\Generated_Source\PSoC4/XBee_UART.c **** *
 356:.\Generated_Source\PSoC4/XBee_UART.c **** * Return:
 357:.\Generated_Source\PSoC4/XBee_UART.c **** *  None
 358:.\Generated_Source\PSoC4/XBee_UART.c **** *
 359:.\Generated_Source\PSoC4/XBee_UART.c **** *******************************************************************************/
 360:.\Generated_Source\PSoC4/XBee_UART.c **** void XBee_UartStop(void)
 361:.\Generated_Source\PSoC4/XBee_UART.c **** {
 144              		.loc 1 361 0
 145              		.cfi_startproc
 362:.\Generated_Source\PSoC4/XBee_UART.c **** #if(XBee_SCB_MODE_UNCONFIG_CONST_CFG)
 363:.\Generated_Source\PSoC4/XBee_UART.c ****     #if (XBee_TX_SDA_MISO_PIN)
 364:.\Generated_Source\PSoC4/XBee_UART.c ****         if (XBee_CHECK_TX_SDA_MISO_PIN_USED)
 365:.\Generated_Source\PSoC4/XBee_UART.c ****         {
 366:.\Generated_Source\PSoC4/XBee_UART.c ****             /* Set GPIO to drive output pin */
 367:.\Generated_Source\PSoC4/XBee_UART.c ****             XBee_SET_HSIOM_SEL(XBee_TX_SDA_MISO_HSIOM_REG, XBee_TX_SDA_MISO_HSIOM_MASK,
 368:.\Generated_Source\PSoC4/XBee_UART.c ****                                            XBee_TX_SDA_MISO_HSIOM_POS, XBee_HSIOM_GPIO_SEL);
ARM GAS  C:\Users\Dylan\AppData\Local\Temp\ccOtUxRE.s 			page 10


 369:.\Generated_Source\PSoC4/XBee_UART.c ****         }
 370:.\Generated_Source\PSoC4/XBee_UART.c ****     #endif /* (XBee_TX_SDA_MISO_PIN_PIN) */
 371:.\Generated_Source\PSoC4/XBee_UART.c **** 
 372:.\Generated_Source\PSoC4/XBee_UART.c ****     #if (XBee_SS0_PIN)
 373:.\Generated_Source\PSoC4/XBee_UART.c ****         if (XBee_CHECK_SS0_PIN_USED)
 374:.\Generated_Source\PSoC4/XBee_UART.c ****         {
 375:.\Generated_Source\PSoC4/XBee_UART.c ****             /* Set output pin state after block is disabled */
 376:.\Generated_Source\PSoC4/XBee_UART.c ****             XBee_spi_ss0_Write(XBee_GET_UART_RTS_INACTIVE);
 377:.\Generated_Source\PSoC4/XBee_UART.c **** 
 378:.\Generated_Source\PSoC4/XBee_UART.c ****             /* Set GPIO to drive output pin */
 379:.\Generated_Source\PSoC4/XBee_UART.c ****             XBee_SET_HSIOM_SEL(XBee_SS0_HSIOM_REG, XBee_SS0_HSIOM_MASK,
 380:.\Generated_Source\PSoC4/XBee_UART.c ****                                            XBee_SS0_HSIOM_POS, XBee_HSIOM_GPIO_SEL);
 381:.\Generated_Source\PSoC4/XBee_UART.c ****         }
 382:.\Generated_Source\PSoC4/XBee_UART.c ****     #endif /* (XBee_SS0_PIN) */
 383:.\Generated_Source\PSoC4/XBee_UART.c **** 
 384:.\Generated_Source\PSoC4/XBee_UART.c **** #else
 385:.\Generated_Source\PSoC4/XBee_UART.c ****     #if (XBee_UART_TX_PIN)
 386:.\Generated_Source\PSoC4/XBee_UART.c ****         /* Set GPIO to drive output pin */
 387:.\Generated_Source\PSoC4/XBee_UART.c ****         XBee_SET_HSIOM_SEL(XBee_TX_HSIOM_REG, XBee_TX_HSIOM_MASK,
 146              		.loc 1 387 0
 147 0000 024A     		ldr	r2, .L8
 148 0002 1168     		ldr	r1, [r2]
 149 0004 024B     		ldr	r3, .L8+4
 150 0006 0B40     		and	r3, r1
 151 0008 1360     		str	r3, [r2]
 388:.\Generated_Source\PSoC4/XBee_UART.c ****                                        XBee_TX_HSIOM_POS, XBee_HSIOM_GPIO_SEL);
 389:.\Generated_Source\PSoC4/XBee_UART.c ****     #endif /* (XBee_UART_TX_PIN) */
 390:.\Generated_Source\PSoC4/XBee_UART.c **** 
 391:.\Generated_Source\PSoC4/XBee_UART.c ****     #if (XBee_UART_RTS_PIN)
 392:.\Generated_Source\PSoC4/XBee_UART.c ****         /* Set output pin state after block is disabled */
 393:.\Generated_Source\PSoC4/XBee_UART.c ****         XBee_rts_Write(XBee_GET_UART_RTS_INACTIVE);
 394:.\Generated_Source\PSoC4/XBee_UART.c **** 
 395:.\Generated_Source\PSoC4/XBee_UART.c ****         /* Set GPIO to drive output pin */
 396:.\Generated_Source\PSoC4/XBee_UART.c ****         XBee_SET_HSIOM_SEL(XBee_RTS_HSIOM_REG, XBee_RTS_HSIOM_MASK,
 397:.\Generated_Source\PSoC4/XBee_UART.c ****                                        XBee_RTS_HSIOM_POS, XBee_HSIOM_GPIO_SEL);
 398:.\Generated_Source\PSoC4/XBee_UART.c ****     #endif /* (XBee_UART_RTS_PIN) */
 399:.\Generated_Source\PSoC4/XBee_UART.c **** 
 400:.\Generated_Source\PSoC4/XBee_UART.c **** #endif /* (XBee_SCB_MODE_UNCONFIG_CONST_CFG) */
 401:.\Generated_Source\PSoC4/XBee_UART.c **** 
 402:.\Generated_Source\PSoC4/XBee_UART.c **** #if (XBee_UART_WAKE_ENABLE_CONST)
 403:.\Generated_Source\PSoC4/XBee_UART.c ****     /* Disable skip start feature used for wakeup */
 404:.\Generated_Source\PSoC4/XBee_UART.c ****     XBee_UART_RX_CTRL_REG &= (uint32) ~XBee_UART_RX_CTRL_SKIP_START;
 405:.\Generated_Source\PSoC4/XBee_UART.c **** #endif /* (XBee_UART_WAKE_ENABLE_CONST) */
 406:.\Generated_Source\PSoC4/XBee_UART.c **** }
 152              		.loc 1 406 0
 153              		@ sp needed
 154 000a 7047     		bx	lr
 155              	.L9:
 156              		.align	2
 157              	.L8:
 158 000c 00000140 		.word	1073807360
 159 0010 FFFF0FFF 		.word	-15728641
 160              		.cfi_endproc
 161              	.LFE2:
 162              		.size	XBee_UartStop, .-XBee_UartStop
 163              		.section	.text.XBee_UartSetRxAddress,"ax",%progbits
 164              		.align	2
ARM GAS  C:\Users\Dylan\AppData\Local\Temp\ccOtUxRE.s 			page 11


 165              		.global	XBee_UartSetRxAddress
 166              		.code	16
 167              		.thumb_func
 168              		.type	XBee_UartSetRxAddress, %function
 169              	XBee_UartSetRxAddress:
 170              	.LFB3:
 407:.\Generated_Source\PSoC4/XBee_UART.c **** 
 408:.\Generated_Source\PSoC4/XBee_UART.c **** 
 409:.\Generated_Source\PSoC4/XBee_UART.c **** /*******************************************************************************
 410:.\Generated_Source\PSoC4/XBee_UART.c **** * Function Name: XBee_UartSetRxAddress
 411:.\Generated_Source\PSoC4/XBee_UART.c **** ********************************************************************************
 412:.\Generated_Source\PSoC4/XBee_UART.c **** *
 413:.\Generated_Source\PSoC4/XBee_UART.c **** * Summary:
 414:.\Generated_Source\PSoC4/XBee_UART.c **** *  Sets the hardware detectable receiver address for the UART in the
 415:.\Generated_Source\PSoC4/XBee_UART.c **** *  Multiprocessor mode.
 416:.\Generated_Source\PSoC4/XBee_UART.c **** *
 417:.\Generated_Source\PSoC4/XBee_UART.c **** * Parameters:
 418:.\Generated_Source\PSoC4/XBee_UART.c **** *  address: Address for hardware address detection.
 419:.\Generated_Source\PSoC4/XBee_UART.c **** *
 420:.\Generated_Source\PSoC4/XBee_UART.c **** * Return:
 421:.\Generated_Source\PSoC4/XBee_UART.c **** *  None
 422:.\Generated_Source\PSoC4/XBee_UART.c **** *
 423:.\Generated_Source\PSoC4/XBee_UART.c **** *******************************************************************************/
 424:.\Generated_Source\PSoC4/XBee_UART.c **** void XBee_UartSetRxAddress(uint32 address)
 425:.\Generated_Source\PSoC4/XBee_UART.c **** {
 171              		.loc 1 425 0
 172              		.cfi_startproc
 173              	.LVL0:
 426:.\Generated_Source\PSoC4/XBee_UART.c ****      uint32 matchReg;
 427:.\Generated_Source\PSoC4/XBee_UART.c **** 
 428:.\Generated_Source\PSoC4/XBee_UART.c ****     matchReg = XBee_RX_MATCH_REG;
 174              		.loc 1 428 0
 175 0000 034A     		ldr	r2, .L11
 176 0002 1368     		ldr	r3, [r2]
 177              	.LVL1:
 429:.\Generated_Source\PSoC4/XBee_UART.c **** 
 430:.\Generated_Source\PSoC4/XBee_UART.c ****     matchReg &= ((uint32) ~XBee_RX_MATCH_ADDR_MASK); /* Clear address bits */
 178              		.loc 1 430 0
 179 0004 FF21     		mov	r1, #255
 180 0006 8B43     		bic	r3, r1
 181              	.LVL2:
 431:.\Generated_Source\PSoC4/XBee_UART.c ****     matchReg |= ((uint32)  (address & XBee_RX_MATCH_ADDR_MASK)); /* Set address  */
 182              		.loc 1 431 0
 183 0008 0840     		and	r0, r1
 184              	.LVL3:
 185 000a 1843     		orr	r0, r3
 186              	.LVL4:
 432:.\Generated_Source\PSoC4/XBee_UART.c **** 
 433:.\Generated_Source\PSoC4/XBee_UART.c ****     XBee_RX_MATCH_REG = matchReg;
 187              		.loc 1 433 0
 188 000c 1060     		str	r0, [r2]
 434:.\Generated_Source\PSoC4/XBee_UART.c **** }
 189              		.loc 1 434 0
 190              		@ sp needed
 191 000e 7047     		bx	lr
 192              	.L12:
 193              		.align	2
ARM GAS  C:\Users\Dylan\AppData\Local\Temp\ccOtUxRE.s 			page 12


 194              	.L11:
 195 0010 10030740 		.word	1074201360
 196              		.cfi_endproc
 197              	.LFE3:
 198              		.size	XBee_UartSetRxAddress, .-XBee_UartSetRxAddress
 199              		.section	.text.XBee_UartSetRxAddressMask,"ax",%progbits
 200              		.align	2
 201              		.global	XBee_UartSetRxAddressMask
 202              		.code	16
 203              		.thumb_func
 204              		.type	XBee_UartSetRxAddressMask, %function
 205              	XBee_UartSetRxAddressMask:
 206              	.LFB4:
 435:.\Generated_Source\PSoC4/XBee_UART.c **** 
 436:.\Generated_Source\PSoC4/XBee_UART.c **** 
 437:.\Generated_Source\PSoC4/XBee_UART.c **** /*******************************************************************************
 438:.\Generated_Source\PSoC4/XBee_UART.c **** * Function Name: XBee_UartSetRxAddressMask
 439:.\Generated_Source\PSoC4/XBee_UART.c **** ********************************************************************************
 440:.\Generated_Source\PSoC4/XBee_UART.c **** *
 441:.\Generated_Source\PSoC4/XBee_UART.c **** * Summary:
 442:.\Generated_Source\PSoC4/XBee_UART.c **** *  Sets the hardware address mask for the UART in the Multiprocessor mode.
 443:.\Generated_Source\PSoC4/XBee_UART.c **** *
 444:.\Generated_Source\PSoC4/XBee_UART.c **** * Parameters:
 445:.\Generated_Source\PSoC4/XBee_UART.c **** *  addressMask: Address mask.
 446:.\Generated_Source\PSoC4/XBee_UART.c **** *   0 - address bit does not care while comparison.
 447:.\Generated_Source\PSoC4/XBee_UART.c **** *   1 - address bit is significant while comparison.
 448:.\Generated_Source\PSoC4/XBee_UART.c **** *
 449:.\Generated_Source\PSoC4/XBee_UART.c **** * Return:
 450:.\Generated_Source\PSoC4/XBee_UART.c **** *  None
 451:.\Generated_Source\PSoC4/XBee_UART.c **** *
 452:.\Generated_Source\PSoC4/XBee_UART.c **** *******************************************************************************/
 453:.\Generated_Source\PSoC4/XBee_UART.c **** void XBee_UartSetRxAddressMask(uint32 addressMask)
 454:.\Generated_Source\PSoC4/XBee_UART.c **** {
 207              		.loc 1 454 0
 208              		.cfi_startproc
 209              	.LVL5:
 455:.\Generated_Source\PSoC4/XBee_UART.c ****     uint32 matchReg;
 456:.\Generated_Source\PSoC4/XBee_UART.c **** 
 457:.\Generated_Source\PSoC4/XBee_UART.c ****     matchReg = XBee_RX_MATCH_REG;
 210              		.loc 1 457 0
 211 0000 034A     		ldr	r2, .L14
 212 0002 1168     		ldr	r1, [r2]
 213              	.LVL6:
 458:.\Generated_Source\PSoC4/XBee_UART.c **** 
 459:.\Generated_Source\PSoC4/XBee_UART.c ****     matchReg &= ((uint32) ~XBee_RX_MATCH_MASK_MASK); /* Clear address mask bits */
 214              		.loc 1 459 0
 215 0004 034B     		ldr	r3, .L14+4
 216 0006 0B40     		and	r3, r1
 217              	.LVL7:
 460:.\Generated_Source\PSoC4/XBee_UART.c ****     matchReg |= ((uint32) (addressMask << XBee_RX_MATCH_MASK_POS));
 218              		.loc 1 460 0
 219 0008 0004     		lsl	r0, r0, #16
 220              	.LVL8:
 221 000a 1843     		orr	r0, r3
 222              	.LVL9:
 461:.\Generated_Source\PSoC4/XBee_UART.c **** 
 462:.\Generated_Source\PSoC4/XBee_UART.c ****     XBee_RX_MATCH_REG = matchReg;
ARM GAS  C:\Users\Dylan\AppData\Local\Temp\ccOtUxRE.s 			page 13


 223              		.loc 1 462 0
 224 000c 1060     		str	r0, [r2]
 463:.\Generated_Source\PSoC4/XBee_UART.c **** }
 225              		.loc 1 463 0
 226              		@ sp needed
 227 000e 7047     		bx	lr
 228              	.L15:
 229              		.align	2
 230              	.L14:
 231 0010 10030740 		.word	1074201360
 232 0014 FFFF00FF 		.word	-16711681
 233              		.cfi_endproc
 234              	.LFE4:
 235              		.size	XBee_UartSetRxAddressMask, .-XBee_UartSetRxAddressMask
 236              		.section	.text.XBee_UartGetChar,"ax",%progbits
 237              		.align	2
 238              		.global	XBee_UartGetChar
 239              		.code	16
 240              		.thumb_func
 241              		.type	XBee_UartGetChar, %function
 242              	XBee_UartGetChar:
 243              	.LFB5:
 464:.\Generated_Source\PSoC4/XBee_UART.c **** 
 465:.\Generated_Source\PSoC4/XBee_UART.c **** 
 466:.\Generated_Source\PSoC4/XBee_UART.c **** #if(XBee_UART_RX_DIRECTION)
 467:.\Generated_Source\PSoC4/XBee_UART.c ****     /*******************************************************************************
 468:.\Generated_Source\PSoC4/XBee_UART.c ****     * Function Name: XBee_UartGetChar
 469:.\Generated_Source\PSoC4/XBee_UART.c ****     ********************************************************************************
 470:.\Generated_Source\PSoC4/XBee_UART.c ****     *
 471:.\Generated_Source\PSoC4/XBee_UART.c ****     * Summary:
 472:.\Generated_Source\PSoC4/XBee_UART.c ****     *  Retrieves the next data element from the receive buffer.
 473:.\Generated_Source\PSoC4/XBee_UART.c ****     *  This function is designed for ASCII characters and returns a char
 474:.\Generated_Source\PSoC4/XBee_UART.c ****     *  where 1 to 255 are valid characters and 0 indicates an error occurred or
 475:.\Generated_Source\PSoC4/XBee_UART.c ****     *  no data present.
 476:.\Generated_Source\PSoC4/XBee_UART.c ****     *  - The RX software buffer is disabled: returns the data element
 477:.\Generated_Source\PSoC4/XBee_UART.c ****     *    retrieved from the RX FIFO.
 478:.\Generated_Source\PSoC4/XBee_UART.c ****     *    Undefined data will be returned if the RX FIFO is empty.
 479:.\Generated_Source\PSoC4/XBee_UART.c ****     *  - The RX software buffer is enabled: returns the data element from
 480:.\Generated_Source\PSoC4/XBee_UART.c ****     *    the software receive buffer.
 481:.\Generated_Source\PSoC4/XBee_UART.c ****     *
 482:.\Generated_Source\PSoC4/XBee_UART.c ****     * Parameters:
 483:.\Generated_Source\PSoC4/XBee_UART.c ****     *  None
 484:.\Generated_Source\PSoC4/XBee_UART.c ****     *
 485:.\Generated_Source\PSoC4/XBee_UART.c ****     * Return:
 486:.\Generated_Source\PSoC4/XBee_UART.c ****     *  The next data element from the receive buffer.
 487:.\Generated_Source\PSoC4/XBee_UART.c ****     *  ASCII character values from 1 to 255 are valid.
 488:.\Generated_Source\PSoC4/XBee_UART.c ****     *  A returned zero signifies an error condition or no data available.
 489:.\Generated_Source\PSoC4/XBee_UART.c ****     *
 490:.\Generated_Source\PSoC4/XBee_UART.c ****     * Side Effects:
 491:.\Generated_Source\PSoC4/XBee_UART.c ****     *  The errors bits may not correspond with reading characters due to RX FIFO
 492:.\Generated_Source\PSoC4/XBee_UART.c ****     *  and software buffer usage.
 493:.\Generated_Source\PSoC4/XBee_UART.c ****     *  RX software buffer is enabled: The internal software buffer overflow
 494:.\Generated_Source\PSoC4/XBee_UART.c ****     *  does not treat as an error condition.
 495:.\Generated_Source\PSoC4/XBee_UART.c ****     *  Check SCB_rxBufferOverflow to capture that error condition.
 496:.\Generated_Source\PSoC4/XBee_UART.c ****     *
 497:.\Generated_Source\PSoC4/XBee_UART.c ****     *******************************************************************************/
 498:.\Generated_Source\PSoC4/XBee_UART.c ****     uint32 XBee_UartGetChar(void)
ARM GAS  C:\Users\Dylan\AppData\Local\Temp\ccOtUxRE.s 			page 14


 499:.\Generated_Source\PSoC4/XBee_UART.c ****     {
 244              		.loc 1 499 0
 245              		.cfi_startproc
 246 0000 08B5     		push	{r3, lr}
 247              		.cfi_def_cfa_offset 8
 248              		.cfi_offset 3, -8
 249              		.cfi_offset 14, -4
 250              	.LVL10:
 500:.\Generated_Source\PSoC4/XBee_UART.c ****         uint32 rxData = 0u;
 501:.\Generated_Source\PSoC4/XBee_UART.c **** 
 502:.\Generated_Source\PSoC4/XBee_UART.c ****         /* Reads data only if there is data to read */
 503:.\Generated_Source\PSoC4/XBee_UART.c ****         if (0u != XBee_SpiUartGetRxBufferSize())
 251              		.loc 1 503 0
 252 0002 FFF7FEFF 		bl	XBee_SpiUartGetRxBufferSize
 253              	.LVL11:
 254 0006 0028     		cmp	r0, #0
 255 0008 02D0     		beq	.L19
 504:.\Generated_Source\PSoC4/XBee_UART.c ****         {
 505:.\Generated_Source\PSoC4/XBee_UART.c ****             rxData = XBee_SpiUartReadRxData();
 256              		.loc 1 505 0
 257 000a FFF7FEFF 		bl	XBee_SpiUartReadRxData
 258              	.LVL12:
 259 000e 00E0     		b	.L17
 260              	.LVL13:
 261              	.L19:
 500:.\Generated_Source\PSoC4/XBee_UART.c ****         uint32 rxData = 0u;
 262              		.loc 1 500 0
 263 0010 0020     		mov	r0, #0
 264              	.LVL14:
 265              	.L17:
 506:.\Generated_Source\PSoC4/XBee_UART.c ****         }
 507:.\Generated_Source\PSoC4/XBee_UART.c **** 
 508:.\Generated_Source\PSoC4/XBee_UART.c ****         if (XBee_CHECK_INTR_RX(XBee_INTR_RX_ERR))
 266              		.loc 1 508 0
 267 0012 054B     		ldr	r3, .L20
 268 0014 1A68     		ldr	r2, [r3]
 269 0016 D823     		mov	r3, #216
 270 0018 9B00     		lsl	r3, r3, #2
 271 001a 1A42     		tst	r2, r3
 272 001c 03D0     		beq	.L18
 273              	.LVL15:
 509:.\Generated_Source\PSoC4/XBee_UART.c ****         {
 510:.\Generated_Source\PSoC4/XBee_UART.c ****             rxData = 0u; /* Error occurred: returns zero */
 511:.\Generated_Source\PSoC4/XBee_UART.c ****             XBee_ClearRxInterruptSource(XBee_INTR_RX_ERR);
 274              		.loc 1 511 0
 275 001e 1A1C     		mov	r2, r3
 276 0020 014B     		ldr	r3, .L20
 277 0022 1A60     		str	r2, [r3]
 510:.\Generated_Source\PSoC4/XBee_UART.c ****             XBee_ClearRxInterruptSource(XBee_INTR_RX_ERR);
 278              		.loc 1 510 0
 279 0024 0020     		mov	r0, #0
 280              	.LVL16:
 281              	.L18:
 512:.\Generated_Source\PSoC4/XBee_UART.c ****         }
 513:.\Generated_Source\PSoC4/XBee_UART.c **** 
 514:.\Generated_Source\PSoC4/XBee_UART.c ****         return (rxData);
 515:.\Generated_Source\PSoC4/XBee_UART.c ****     }
ARM GAS  C:\Users\Dylan\AppData\Local\Temp\ccOtUxRE.s 			page 15


 282              		.loc 1 515 0
 283              		@ sp needed
 284 0026 08BD     		pop	{r3, pc}
 285              	.L21:
 286              		.align	2
 287              	.L20:
 288 0028 C00F0740 		.word	1074204608
 289              		.cfi_endproc
 290              	.LFE5:
 291              		.size	XBee_UartGetChar, .-XBee_UartGetChar
 292              		.section	.text.XBee_UartGetByte,"ax",%progbits
 293              		.align	2
 294              		.global	XBee_UartGetByte
 295              		.code	16
 296              		.thumb_func
 297              		.type	XBee_UartGetByte, %function
 298              	XBee_UartGetByte:
 299              	.LFB6:
 516:.\Generated_Source\PSoC4/XBee_UART.c **** 
 517:.\Generated_Source\PSoC4/XBee_UART.c **** 
 518:.\Generated_Source\PSoC4/XBee_UART.c ****     /*******************************************************************************
 519:.\Generated_Source\PSoC4/XBee_UART.c ****     * Function Name: XBee_UartGetByte
 520:.\Generated_Source\PSoC4/XBee_UART.c ****     ********************************************************************************
 521:.\Generated_Source\PSoC4/XBee_UART.c ****     *
 522:.\Generated_Source\PSoC4/XBee_UART.c ****     * Summary:
 523:.\Generated_Source\PSoC4/XBee_UART.c ****     *  Retrieves the next data element from the receive buffer, returns the
 524:.\Generated_Source\PSoC4/XBee_UART.c ****     *  received byte and error condition.
 525:.\Generated_Source\PSoC4/XBee_UART.c ****     *   - The RX software buffer is disabled: returns the data element retrieved
 526:.\Generated_Source\PSoC4/XBee_UART.c ****     *     from the RX FIFO. Undefined data will be returned if the RX FIFO is
 527:.\Generated_Source\PSoC4/XBee_UART.c ****     *     empty.
 528:.\Generated_Source\PSoC4/XBee_UART.c ****     *   - The RX software buffer is enabled: returns data element from the
 529:.\Generated_Source\PSoC4/XBee_UART.c ****     *     software receive buffer.
 530:.\Generated_Source\PSoC4/XBee_UART.c ****     *
 531:.\Generated_Source\PSoC4/XBee_UART.c ****     * Parameters:
 532:.\Generated_Source\PSoC4/XBee_UART.c ****     *  None
 533:.\Generated_Source\PSoC4/XBee_UART.c ****     *
 534:.\Generated_Source\PSoC4/XBee_UART.c ****     * Return:
 535:.\Generated_Source\PSoC4/XBee_UART.c ****     *  Bits 7-0 contain the next data element from the receive buffer and
 536:.\Generated_Source\PSoC4/XBee_UART.c ****     *  other bits contain the error condition.
 537:.\Generated_Source\PSoC4/XBee_UART.c ****     *
 538:.\Generated_Source\PSoC4/XBee_UART.c ****     * Side Effects:
 539:.\Generated_Source\PSoC4/XBee_UART.c ****     *  The errors bits may not correspond with reading characters due to RX FIFO
 540:.\Generated_Source\PSoC4/XBee_UART.c ****     *  and software buffer usage.
 541:.\Generated_Source\PSoC4/XBee_UART.c ****     *  RX software buffer is disabled: The internal software buffer overflow
 542:.\Generated_Source\PSoC4/XBee_UART.c ****     *  is not returned as status by this function.
 543:.\Generated_Source\PSoC4/XBee_UART.c ****     *  Check SCB_rxBufferOverflow to capture that error condition.
 544:.\Generated_Source\PSoC4/XBee_UART.c ****     *
 545:.\Generated_Source\PSoC4/XBee_UART.c ****     *******************************************************************************/
 546:.\Generated_Source\PSoC4/XBee_UART.c ****     uint32 XBee_UartGetByte(void)
 547:.\Generated_Source\PSoC4/XBee_UART.c ****     {
 300              		.loc 1 547 0
 301              		.cfi_startproc
 302 0000 08B5     		push	{r3, lr}
 303              		.cfi_def_cfa_offset 8
 304              		.cfi_offset 3, -8
 305              		.cfi_offset 14, -4
 548:.\Generated_Source\PSoC4/XBee_UART.c ****         uint32 rxData;
ARM GAS  C:\Users\Dylan\AppData\Local\Temp\ccOtUxRE.s 			page 16


 549:.\Generated_Source\PSoC4/XBee_UART.c ****         uint32 tmpStatus;
 550:.\Generated_Source\PSoC4/XBee_UART.c **** 
 551:.\Generated_Source\PSoC4/XBee_UART.c ****         #if (XBee_CHECK_RX_SW_BUFFER)
 552:.\Generated_Source\PSoC4/XBee_UART.c ****         {
 553:.\Generated_Source\PSoC4/XBee_UART.c ****             XBee_DisableInt();
 554:.\Generated_Source\PSoC4/XBee_UART.c ****         }
 555:.\Generated_Source\PSoC4/XBee_UART.c ****         #endif
 556:.\Generated_Source\PSoC4/XBee_UART.c **** 
 557:.\Generated_Source\PSoC4/XBee_UART.c ****         if (0u != XBee_SpiUartGetRxBufferSize())
 306              		.loc 1 557 0
 307 0002 FFF7FEFF 		bl	XBee_SpiUartGetRxBufferSize
 308              	.LVL17:
 309 0006 0028     		cmp	r0, #0
 310 0008 02D0     		beq	.L23
 558:.\Generated_Source\PSoC4/XBee_UART.c ****         {
 559:.\Generated_Source\PSoC4/XBee_UART.c ****             /* Enables interrupt to receive more bytes: at least one byte is in
 560:.\Generated_Source\PSoC4/XBee_UART.c ****             * buffer.
 561:.\Generated_Source\PSoC4/XBee_UART.c ****             */
 562:.\Generated_Source\PSoC4/XBee_UART.c ****             #if (XBee_CHECK_RX_SW_BUFFER)
 563:.\Generated_Source\PSoC4/XBee_UART.c ****             {            
 564:.\Generated_Source\PSoC4/XBee_UART.c ****                 XBee_EnableInt();
 565:.\Generated_Source\PSoC4/XBee_UART.c ****             }
 566:.\Generated_Source\PSoC4/XBee_UART.c ****             #endif
 567:.\Generated_Source\PSoC4/XBee_UART.c **** 
 568:.\Generated_Source\PSoC4/XBee_UART.c ****             /* Get received byte */
 569:.\Generated_Source\PSoC4/XBee_UART.c ****             rxData = XBee_SpiUartReadRxData();
 311              		.loc 1 569 0
 312 000a FFF7FEFF 		bl	XBee_SpiUartReadRxData
 313              	.LVL18:
 314 000e 01E0     		b	.L24
 315              	.LVL19:
 316              	.L23:
 570:.\Generated_Source\PSoC4/XBee_UART.c ****         }
 571:.\Generated_Source\PSoC4/XBee_UART.c ****         else
 572:.\Generated_Source\PSoC4/XBee_UART.c ****         {
 573:.\Generated_Source\PSoC4/XBee_UART.c ****             /* Reads a byte directly from RX FIFO: underflow is raised in the case
 574:.\Generated_Source\PSoC4/XBee_UART.c ****             * of empty. Otherwise the first received byte will be read.
 575:.\Generated_Source\PSoC4/XBee_UART.c ****             */
 576:.\Generated_Source\PSoC4/XBee_UART.c ****             rxData = XBee_RX_FIFO_RD_REG;
 317              		.loc 1 576 0
 318 0010 054B     		ldr	r3, .L25
 319 0012 1868     		ldr	r0, [r3]
 320              	.LVL20:
 321              	.L24:
 577:.\Generated_Source\PSoC4/XBee_UART.c **** 
 578:.\Generated_Source\PSoC4/XBee_UART.c ****             /* Enables interrupt to receive more bytes.
 579:.\Generated_Source\PSoC4/XBee_UART.c ****             * The RX_NOT_EMPTY interrupt is cleared by the interrupt routine
 580:.\Generated_Source\PSoC4/XBee_UART.c ****             * in case the byte was received and read by code above.
 581:.\Generated_Source\PSoC4/XBee_UART.c ****             */
 582:.\Generated_Source\PSoC4/XBee_UART.c ****             #if (XBee_CHECK_RX_SW_BUFFER)
 583:.\Generated_Source\PSoC4/XBee_UART.c ****             {
 584:.\Generated_Source\PSoC4/XBee_UART.c ****                 XBee_EnableInt();
 585:.\Generated_Source\PSoC4/XBee_UART.c ****             }
 586:.\Generated_Source\PSoC4/XBee_UART.c ****             #endif
 587:.\Generated_Source\PSoC4/XBee_UART.c ****         }
 588:.\Generated_Source\PSoC4/XBee_UART.c **** 
 589:.\Generated_Source\PSoC4/XBee_UART.c ****         /* Get and clear RX error mask */
ARM GAS  C:\Users\Dylan\AppData\Local\Temp\ccOtUxRE.s 			page 17


 590:.\Generated_Source\PSoC4/XBee_UART.c ****         tmpStatus = (XBee_GetRxInterruptSource() & XBee_INTR_RX_ERR);
 322              		.loc 1 590 0
 323 0014 054A     		ldr	r2, .L25+4
 324 0016 1368     		ldr	r3, [r2]
 325 0018 D821     		mov	r1, #216
 326 001a 8900     		lsl	r1, r1, #2
 327 001c 0B40     		and	r3, r1
 328              	.LVL21:
 591:.\Generated_Source\PSoC4/XBee_UART.c ****         XBee_ClearRxInterruptSource(XBee_INTR_RX_ERR);
 329              		.loc 1 591 0
 330 001e 1160     		str	r1, [r2]
 592:.\Generated_Source\PSoC4/XBee_UART.c **** 
 593:.\Generated_Source\PSoC4/XBee_UART.c ****         /* Puts together data and error status:
 594:.\Generated_Source\PSoC4/XBee_UART.c ****         * MP mode and accept address: 9th bit is set to notify mark.
 595:.\Generated_Source\PSoC4/XBee_UART.c ****         */
 596:.\Generated_Source\PSoC4/XBee_UART.c ****         rxData |= ((uint32) (tmpStatus << 8u));
 331              		.loc 1 596 0
 332 0020 1B02     		lsl	r3, r3, #8
 333              	.LVL22:
 334 0022 1843     		orr	r0, r3
 335              	.LVL23:
 597:.\Generated_Source\PSoC4/XBee_UART.c **** 
 598:.\Generated_Source\PSoC4/XBee_UART.c ****         return (rxData);
 599:.\Generated_Source\PSoC4/XBee_UART.c ****     }
 336              		.loc 1 599 0
 337              		@ sp needed
 338 0024 08BD     		pop	{r3, pc}
 339              	.L26:
 340 0026 C046     		.align	2
 341              	.L25:
 342 0028 40030740 		.word	1074201408
 343 002c C00F0740 		.word	1074204608
 344              		.cfi_endproc
 345              	.LFE6:
 346              		.size	XBee_UartGetByte, .-XBee_UartGetByte
 347              		.section	.text.XBee_UartPutString,"ax",%progbits
 348              		.align	2
 349              		.global	XBee_UartPutString
 350              		.code	16
 351              		.thumb_func
 352              		.type	XBee_UartPutString, %function
 353              	XBee_UartPutString:
 354              	.LFB7:
 600:.\Generated_Source\PSoC4/XBee_UART.c **** 
 601:.\Generated_Source\PSoC4/XBee_UART.c **** 
 602:.\Generated_Source\PSoC4/XBee_UART.c ****     #if !(XBee_CY_SCBIP_V0 || XBee_CY_SCBIP_V1)
 603:.\Generated_Source\PSoC4/XBee_UART.c ****         /*******************************************************************************
 604:.\Generated_Source\PSoC4/XBee_UART.c ****         * Function Name: XBee_UartSetRtsPolarity
 605:.\Generated_Source\PSoC4/XBee_UART.c ****         ********************************************************************************
 606:.\Generated_Source\PSoC4/XBee_UART.c ****         *
 607:.\Generated_Source\PSoC4/XBee_UART.c ****         * Summary:
 608:.\Generated_Source\PSoC4/XBee_UART.c ****         *  Sets active polarity of RTS output signal.
 609:.\Generated_Source\PSoC4/XBee_UART.c ****         *
 610:.\Generated_Source\PSoC4/XBee_UART.c ****         * Parameters:
 611:.\Generated_Source\PSoC4/XBee_UART.c ****         *  polarity: Active polarity of RTS output signal.
 612:.\Generated_Source\PSoC4/XBee_UART.c ****         *   XBee_UART_RTS_ACTIVE_LOW  - RTS signal is active low.
 613:.\Generated_Source\PSoC4/XBee_UART.c ****         *   XBee_UART_RTS_ACTIVE_HIGH - RTS signal is active high.
ARM GAS  C:\Users\Dylan\AppData\Local\Temp\ccOtUxRE.s 			page 18


 614:.\Generated_Source\PSoC4/XBee_UART.c ****         *
 615:.\Generated_Source\PSoC4/XBee_UART.c ****         * Return:
 616:.\Generated_Source\PSoC4/XBee_UART.c ****         *  None
 617:.\Generated_Source\PSoC4/XBee_UART.c ****         *
 618:.\Generated_Source\PSoC4/XBee_UART.c ****         *******************************************************************************/
 619:.\Generated_Source\PSoC4/XBee_UART.c ****         void XBee_UartSetRtsPolarity(uint32 polarity)
 620:.\Generated_Source\PSoC4/XBee_UART.c ****         {
 621:.\Generated_Source\PSoC4/XBee_UART.c ****             if(0u != polarity)
 622:.\Generated_Source\PSoC4/XBee_UART.c ****             {
 623:.\Generated_Source\PSoC4/XBee_UART.c ****                 XBee_UART_FLOW_CTRL_REG |= (uint32)  XBee_UART_FLOW_CTRL_RTS_POLARITY;
 624:.\Generated_Source\PSoC4/XBee_UART.c ****             }
 625:.\Generated_Source\PSoC4/XBee_UART.c ****             else
 626:.\Generated_Source\PSoC4/XBee_UART.c ****             {
 627:.\Generated_Source\PSoC4/XBee_UART.c ****                 XBee_UART_FLOW_CTRL_REG &= (uint32) ~XBee_UART_FLOW_CTRL_RTS_POLARITY;
 628:.\Generated_Source\PSoC4/XBee_UART.c ****             }
 629:.\Generated_Source\PSoC4/XBee_UART.c ****         }
 630:.\Generated_Source\PSoC4/XBee_UART.c **** 
 631:.\Generated_Source\PSoC4/XBee_UART.c **** 
 632:.\Generated_Source\PSoC4/XBee_UART.c ****         /*******************************************************************************
 633:.\Generated_Source\PSoC4/XBee_UART.c ****         * Function Name: XBee_UartSetRtsFifoLevel
 634:.\Generated_Source\PSoC4/XBee_UART.c ****         ********************************************************************************
 635:.\Generated_Source\PSoC4/XBee_UART.c ****         *
 636:.\Generated_Source\PSoC4/XBee_UART.c ****         * Summary:
 637:.\Generated_Source\PSoC4/XBee_UART.c ****         *  Sets level in the RX FIFO for RTS signal activation.
 638:.\Generated_Source\PSoC4/XBee_UART.c ****         *  While the RX FIFO has fewer entries than the RX FIFO level the RTS signal
 639:.\Generated_Source\PSoC4/XBee_UART.c ****         *  remains active, otherwise the RTS signal becomes inactive.
 640:.\Generated_Source\PSoC4/XBee_UART.c ****         *
 641:.\Generated_Source\PSoC4/XBee_UART.c ****         * Parameters:
 642:.\Generated_Source\PSoC4/XBee_UART.c ****         *  level: Level in the RX FIFO for RTS signal activation.
 643:.\Generated_Source\PSoC4/XBee_UART.c ****         *         The range of valid level values is between 0 and RX FIFO depth - 1.
 644:.\Generated_Source\PSoC4/XBee_UART.c ****         *         Setting level value to 0 disables RTS signal activation.
 645:.\Generated_Source\PSoC4/XBee_UART.c ****         *
 646:.\Generated_Source\PSoC4/XBee_UART.c ****         * Return:
 647:.\Generated_Source\PSoC4/XBee_UART.c ****         *  None
 648:.\Generated_Source\PSoC4/XBee_UART.c ****         *
 649:.\Generated_Source\PSoC4/XBee_UART.c ****         *******************************************************************************/
 650:.\Generated_Source\PSoC4/XBee_UART.c ****         void XBee_UartSetRtsFifoLevel(uint32 level)
 651:.\Generated_Source\PSoC4/XBee_UART.c ****         {
 652:.\Generated_Source\PSoC4/XBee_UART.c ****             uint32 uartFlowCtrl;
 653:.\Generated_Source\PSoC4/XBee_UART.c **** 
 654:.\Generated_Source\PSoC4/XBee_UART.c ****             uartFlowCtrl = XBee_UART_FLOW_CTRL_REG;
 655:.\Generated_Source\PSoC4/XBee_UART.c **** 
 656:.\Generated_Source\PSoC4/XBee_UART.c ****             uartFlowCtrl &= ((uint32) ~XBee_UART_FLOW_CTRL_TRIGGER_LEVEL_MASK); /* Clear level mask
 657:.\Generated_Source\PSoC4/XBee_UART.c ****             uartFlowCtrl |= ((uint32) (XBee_UART_FLOW_CTRL_TRIGGER_LEVEL_MASK & level));
 658:.\Generated_Source\PSoC4/XBee_UART.c **** 
 659:.\Generated_Source\PSoC4/XBee_UART.c ****             XBee_UART_FLOW_CTRL_REG = uartFlowCtrl;
 660:.\Generated_Source\PSoC4/XBee_UART.c ****         }
 661:.\Generated_Source\PSoC4/XBee_UART.c ****     #endif /* !(XBee_CY_SCBIP_V0 || XBee_CY_SCBIP_V1) */
 662:.\Generated_Source\PSoC4/XBee_UART.c **** 
 663:.\Generated_Source\PSoC4/XBee_UART.c **** #endif /* (XBee_UART_RX_DIRECTION) */
 664:.\Generated_Source\PSoC4/XBee_UART.c **** 
 665:.\Generated_Source\PSoC4/XBee_UART.c **** 
 666:.\Generated_Source\PSoC4/XBee_UART.c **** #if(XBee_UART_TX_DIRECTION)
 667:.\Generated_Source\PSoC4/XBee_UART.c ****     /*******************************************************************************
 668:.\Generated_Source\PSoC4/XBee_UART.c ****     * Function Name: XBee_UartPutString
 669:.\Generated_Source\PSoC4/XBee_UART.c ****     ********************************************************************************
 670:.\Generated_Source\PSoC4/XBee_UART.c ****     *
ARM GAS  C:\Users\Dylan\AppData\Local\Temp\ccOtUxRE.s 			page 19


 671:.\Generated_Source\PSoC4/XBee_UART.c ****     * Summary:
 672:.\Generated_Source\PSoC4/XBee_UART.c ****     *  Places a NULL terminated string in the transmit buffer to be sent at the
 673:.\Generated_Source\PSoC4/XBee_UART.c ****     *  next available bus time.
 674:.\Generated_Source\PSoC4/XBee_UART.c ****     *  This function is blocking and waits until there is space available to put
 675:.\Generated_Source\PSoC4/XBee_UART.c ****     *  all the requested data into the  transmit buffer.
 676:.\Generated_Source\PSoC4/XBee_UART.c ****     *
 677:.\Generated_Source\PSoC4/XBee_UART.c ****     * Parameters:
 678:.\Generated_Source\PSoC4/XBee_UART.c ****     *  string: pointer to the null terminated string array to be placed in the
 679:.\Generated_Source\PSoC4/XBee_UART.c ****     *          transmit buffer.
 680:.\Generated_Source\PSoC4/XBee_UART.c ****     *
 681:.\Generated_Source\PSoC4/XBee_UART.c ****     * Return:
 682:.\Generated_Source\PSoC4/XBee_UART.c ****     *  None
 683:.\Generated_Source\PSoC4/XBee_UART.c ****     *
 684:.\Generated_Source\PSoC4/XBee_UART.c ****     *******************************************************************************/
 685:.\Generated_Source\PSoC4/XBee_UART.c ****     void XBee_UartPutString(const char8 string[])
 686:.\Generated_Source\PSoC4/XBee_UART.c ****     {
 355              		.loc 1 686 0
 356              		.cfi_startproc
 357              	.LVL24:
 358 0000 38B5     		push	{r3, r4, r5, lr}
 359              		.cfi_def_cfa_offset 16
 360              		.cfi_offset 3, -16
 361              		.cfi_offset 4, -12
 362              		.cfi_offset 5, -8
 363              		.cfi_offset 14, -4
 364 0002 051C     		mov	r5, r0
 365              	.LVL25:
 687:.\Generated_Source\PSoC4/XBee_UART.c ****         uint32 bufIndex;
 688:.\Generated_Source\PSoC4/XBee_UART.c **** 
 689:.\Generated_Source\PSoC4/XBee_UART.c ****         bufIndex = 0u;
 366              		.loc 1 689 0
 367 0004 0024     		mov	r4, #0
 690:.\Generated_Source\PSoC4/XBee_UART.c **** 
 691:.\Generated_Source\PSoC4/XBee_UART.c ****         /* Blocks the control flow until all data has been sent */
 692:.\Generated_Source\PSoC4/XBee_UART.c ****         while(string[bufIndex] != ((char8) 0))
 368              		.loc 1 692 0
 369 0006 02E0     		b	.L28
 370              	.LVL26:
 371              	.L29:
 693:.\Generated_Source\PSoC4/XBee_UART.c ****         {
 694:.\Generated_Source\PSoC4/XBee_UART.c ****             XBee_UartPutChar((uint32) string[bufIndex]);
 372              		.loc 1 694 0
 373 0008 FFF7FEFF 		bl	XBee_SpiUartWriteTxData
 374              	.LVL27:
 695:.\Generated_Source\PSoC4/XBee_UART.c ****             bufIndex++;
 375              		.loc 1 695 0
 376 000c 0134     		add	r4, r4, #1
 377              	.LVL28:
 378              	.L28:
 692:.\Generated_Source\PSoC4/XBee_UART.c ****         {
 379              		.loc 1 692 0
 380 000e 285D     		ldrb	r0, [r5, r4]
 381 0010 0028     		cmp	r0, #0
 382 0012 F9D1     		bne	.L29
 696:.\Generated_Source\PSoC4/XBee_UART.c ****         }
 697:.\Generated_Source\PSoC4/XBee_UART.c ****     }
 383              		.loc 1 697 0
ARM GAS  C:\Users\Dylan\AppData\Local\Temp\ccOtUxRE.s 			page 20


 384              		@ sp needed
 385              	.LVL29:
 386              	.LVL30:
 387 0014 38BD     		pop	{r3, r4, r5, pc}
 388              		.cfi_endproc
 389              	.LFE7:
 390              		.size	XBee_UartPutString, .-XBee_UartPutString
 391 0016 C046     		.section	.text.XBee_UartPutCRLF,"ax",%progbits
 392              		.align	2
 393              		.global	XBee_UartPutCRLF
 394              		.code	16
 395              		.thumb_func
 396              		.type	XBee_UartPutCRLF, %function
 397              	XBee_UartPutCRLF:
 398              	.LFB8:
 698:.\Generated_Source\PSoC4/XBee_UART.c **** 
 699:.\Generated_Source\PSoC4/XBee_UART.c **** 
 700:.\Generated_Source\PSoC4/XBee_UART.c ****     /*******************************************************************************
 701:.\Generated_Source\PSoC4/XBee_UART.c ****     * Function Name: XBee_UartPutCRLF
 702:.\Generated_Source\PSoC4/XBee_UART.c ****     ********************************************************************************
 703:.\Generated_Source\PSoC4/XBee_UART.c ****     *
 704:.\Generated_Source\PSoC4/XBee_UART.c ****     * Summary:
 705:.\Generated_Source\PSoC4/XBee_UART.c ****     *  Places a byte of data followed by a carriage return (0x0D) and
 706:.\Generated_Source\PSoC4/XBee_UART.c ****     *  line feed (0x0A) into the transmit buffer.
 707:.\Generated_Source\PSoC4/XBee_UART.c ****     *  This function is blocking and waits until there is space available to put
 708:.\Generated_Source\PSoC4/XBee_UART.c ****     *  all the requested data into the  transmit buffer.
 709:.\Generated_Source\PSoC4/XBee_UART.c ****     *
 710:.\Generated_Source\PSoC4/XBee_UART.c ****     * Parameters:
 711:.\Generated_Source\PSoC4/XBee_UART.c ****     *  txDataByte : the data to be transmitted.
 712:.\Generated_Source\PSoC4/XBee_UART.c ****     *
 713:.\Generated_Source\PSoC4/XBee_UART.c ****     * Return:
 714:.\Generated_Source\PSoC4/XBee_UART.c ****     *  None
 715:.\Generated_Source\PSoC4/XBee_UART.c ****     *
 716:.\Generated_Source\PSoC4/XBee_UART.c ****     *******************************************************************************/
 717:.\Generated_Source\PSoC4/XBee_UART.c ****     void XBee_UartPutCRLF(uint32 txDataByte)
 718:.\Generated_Source\PSoC4/XBee_UART.c ****     {
 399              		.loc 1 718 0
 400              		.cfi_startproc
 401              	.LVL31:
 402 0000 08B5     		push	{r3, lr}
 403              		.cfi_def_cfa_offset 8
 404              		.cfi_offset 3, -8
 405              		.cfi_offset 14, -4
 719:.\Generated_Source\PSoC4/XBee_UART.c ****         XBee_UartPutChar(txDataByte);  /* Blocks control flow until all data has been sent */
 406              		.loc 1 719 0
 407 0002 FFF7FEFF 		bl	XBee_SpiUartWriteTxData
 408              	.LVL32:
 720:.\Generated_Source\PSoC4/XBee_UART.c ****         XBee_UartPutChar(0x0Du);       /* Blocks control flow until all data has been sent */
 409              		.loc 1 720 0
 410 0006 0D20     		mov	r0, #13
 411 0008 FFF7FEFF 		bl	XBee_SpiUartWriteTxData
 412              	.LVL33:
 721:.\Generated_Source\PSoC4/XBee_UART.c ****         XBee_UartPutChar(0x0Au);       /* Blocks control flow until all data has been sent */
 413              		.loc 1 721 0
 414 000c 0A20     		mov	r0, #10
 415 000e FFF7FEFF 		bl	XBee_SpiUartWriteTxData
 416              	.LVL34:
ARM GAS  C:\Users\Dylan\AppData\Local\Temp\ccOtUxRE.s 			page 21


 722:.\Generated_Source\PSoC4/XBee_UART.c ****     }
 417              		.loc 1 722 0
 418              		@ sp needed
 419 0012 08BD     		pop	{r3, pc}
 420              		.cfi_endproc
 421              	.LFE8:
 422              		.size	XBee_UartPutCRLF, .-XBee_UartPutCRLF
 423              		.text
 424              	.Letext0:
 425              		.file 2 "Generated_Source\\PSoC4/cytypes.h"
 426              		.file 3 ".\\Generated_Source\\PSoC4\\XBee_SPI_UART.h"