ARM GAS  C:\Users\Dylan\AppData\Local\Temp\ccvArTUk.s 			page 1


   1              		.cpu cortex-m0
   2              		.fpu softvfp
   3              		.eabi_attribute 20, 1
   4              		.eabi_attribute 21, 1
   5              		.eabi_attribute 23, 3
   6              		.eabi_attribute 24, 1
   7              		.eabi_attribute 25, 1
   8              		.eabi_attribute 26, 1
   9              		.eabi_attribute 30, 1
  10              		.eabi_attribute 34, 0
  11              		.eabi_attribute 18, 4
  12              		.code	16
  13              		.file	"fonction.c"
  14              		.text
  15              	.Ltext0:
  16              		.cfi_sections	.debug_frame
  17              		.section	.text.initialisation_projet,"ax",%progbits
  18              		.align	2
  19              		.global	initialisation_projet
  20              		.code	16
  21              		.thumb_func
  22              		.type	initialisation_projet, %function
  23              	initialisation_projet:
  24              	.LFB34:
  25              		.file 1 ".\\fonction.c"
   1:.\fonction.c  **** /* ========================================
   2:.\fonction.c  ****  *
   3:.\fonction.c  ****  * Copyright YOUR COMPANY, THE YEAR
   4:.\fonction.c  ****  * All Rights Reserved
   5:.\fonction.c  ****  * UNPUBLISHED, LICENSED SOFTWARE.
   6:.\fonction.c  ****  *
   7:.\fonction.c  ****  * CONFIDENTIAL AND PROPRIETARY INFORMATION
   8:.\fonction.c  ****  * WHICH IS THE PROPERTY OF your company.
   9:.\fonction.c  ****  *
  10:.\fonction.c  ****  * ========================================
  11:.\fonction.c  **** */
  12:.\fonction.c  **** 
  13:.\fonction.c  **** 
  14:.\fonction.c  **** #include "fonction.h"
  15:.\fonction.c  **** #include "stdio.h"
  16:.\fonction.c  **** #include <math.h>
  17:.\fonction.c  **** 
  18:.\fonction.c  **** CY_ISR_PROTO(isr_wdt);
  19:.\fonction.c  **** 
  20:.\fonction.c  **** /*
  21:.\fonction.c  **** cette fonction initialise l'accéléromètre pour une range et une résolution donnée
  22:.\fonction.c  **** on choisit le mode de lecture en low power !!
  23:.\fonction.c  **** 
  24:.\fonction.c  **** param : range : RANGE_2G
  25:.\fonction.c  ****                 RANGE_4G
  26:.\fonction.c  ****                 RANGE_8G
  27:.\fonction.c  ****                 RANGE_16G
  28:.\fonction.c  ****         
  29:.\fonction.c  ****         resolution :    FULL_RESOLUTION (13 bits)
  30:.\fonction.c  ****                         LOW_RESOLUTION  (10 bits)
  31:.\fonction.c  **** 
  32:.\fonction.c  ****         rate :  DATA_RATE_400_Hz
ARM GAS  C:\Users\Dylan\AppData\Local\Temp\ccvArTUk.s 			page 2


  33:.\fonction.c  ****                 DATA_RATE_200_Hz
  34:.\fonction.c  ****                 DATA_RATE_100_Hz
  35:.\fonction.c  ****                 DATA_RATE_50_Hz
  36:.\fonction.c  ****                 DATA_RATE_25_Hz
  37:.\fonction.c  **** 
  38:.\fonction.c  **** */
  39:.\fonction.c  **** void accelero_init(int range, int resolution, int rate){
  40:.\fonction.c  ****     
  41:.\fonction.c  ****     Accelero_Start();
  42:.\fonction.c  ****     // écrit la range et la resolution
  43:.\fonction.c  ****     accelero_write(DATA_FORMAT_ADDR,(range | resolution)); // | : ou bit à bit
  44:.\fonction.c  ****     
  45:.\fonction.c  ****     // écrit le rate voulu et configure l'accéléro en Low power mode
  46:.\fonction.c  ****     accelero_write(BW_RATE_ADDR, (rate | LOW_POWER));
  47:.\fonction.c  ****     
  48:.\fonction.c  ****     Accelero_Stop();
  49:.\fonction.c  **** }
  50:.\fonction.c  **** 
  51:.\fonction.c  **** 
  52:.\fonction.c  **** /* renvoie directement l'accélération efficace sur chacune des directions
  53:.\fonction.c  **** param : les adresses des accelerations efficaces
  54:.\fonction.c  ****         et le nombre d'échantillon sur lequel on calcul la valeur efficace
  55:.\fonction.c  **** 
  56:.\fonction.c  **** */
  57:.\fonction.c  **** 
  58:.\fonction.c  **** void initialisation_projet(int8 time_sec){
  26              		.loc 1 58 0
  27              		.cfi_startproc
  28              	.LVL0:
  29 0000 10B5     		push	{r4, lr}
  30              		.cfi_def_cfa_offset 8
  31              		.cfi_offset 4, -8
  32              		.cfi_offset 14, -4
  33 0002 041C     		mov	r4, r0
  59:.\fonction.c  ****  
  60:.\fonction.c  ****     /* Setup ISR for interrupts at WDT counter 0 events. */
  61:.\fonction.c  ****     WdtIsr_StartEx(isr_wdt);
  34              		.loc 1 61 0
  35 0004 1148     		ldr	r0, .L2
  36              	.LVL1:
  37 0006 FFF7FEFF 		bl	WdtIsr_StartEx
  38              	.LVL2:
  62:.\fonction.c  **** 	
  63:.\fonction.c  **** 	/* Setup first WDT counter to generate interrupt on match 0x4FFF */
  64:.\fonction.c  **** 	CySysWdtSetMode(CY_SYS_WDT_COUNTER0,CY_SYS_WDT_MODE_NONE);
  39              		.loc 1 64 0
  40 000a 0020     		mov	r0, #0
  41 000c 0021     		mov	r1, #0
  42 000e FFF7FEFF 		bl	CySysWdtSetMode
  43              	.LVL3:
  65:.\fonction.c  **** 	CySysWdtSetMatch(CY_SYS_WDT_COUNTER0,32000u);
  44              		.loc 1 65 0
  45 0012 0020     		mov	r0, #0
  46 0014 FA21     		mov	r1, #250
  47 0016 C901     		lsl	r1, r1, #7
  48 0018 FFF7FEFF 		bl	CySysWdtSetMatch
  49              	.LVL4:
ARM GAS  C:\Users\Dylan\AppData\Local\Temp\ccvArTUk.s 			page 3


  66:.\fonction.c  **** 	CySysWdtSetClearOnMatch(CY_SYS_WDT_COUNTER0, 1u);
  50              		.loc 1 66 0
  51 001c 0020     		mov	r0, #0
  52 001e 0121     		mov	r1, #1
  53 0020 FFF7FEFF 		bl	CySysWdtSetClearOnMatch
  54              	.LVL5:
  67:.\fonction.c  **** 	
  68:.\fonction.c  **** 	/* Enable WDT timers 0 and 1 cascade */
  69:.\fonction.c  **** 	CySysWdtSetCascade(CY_SYS_WDT_CASCADE_01);
  55              		.loc 1 69 0
  56 0024 0820     		mov	r0, #8
  57 0026 FFF7FEFF 		bl	CySysWdtSetCascade
  58              	.LVL6:
  70:.\fonction.c  ****     
  71:.\fonction.c  **** 	/* Set WDT reset after counter 1 reach 0x0003 */
  72:.\fonction.c  **** 	CySysWdtSetMatch(CY_SYS_WDT_COUNTER1,time_sec);
  59              		.loc 1 72 0
  60 002a 0120     		mov	r0, #1
  61 002c 211C     		mov	r1, r4
  62 002e FFF7FEFF 		bl	CySysWdtSetMatch
  63              	.LVL7:
  73:.\fonction.c  **** 	CySysWdtSetMode(CY_SYS_WDT_COUNTER1,CY_SYS_WDT_MODE_INT);
  64              		.loc 1 73 0
  65 0032 0120     		mov	r0, #1
  66 0034 0121     		mov	r1, #1
  67 0036 FFF7FEFF 		bl	CySysWdtSetMode
  68              	.LVL8:
  74:.\fonction.c  ****     CySysWdtSetClearOnMatch(CY_SYS_WDT_COUNTER1, 1u);
  69              		.loc 1 74 0
  70 003a 0120     		mov	r0, #1
  71 003c 0121     		mov	r1, #1
  72 003e FFF7FEFF 		bl	CySysWdtSetClearOnMatch
  73              	.LVL9:
  75:.\fonction.c  **** 	
  76:.\fonction.c  **** 	/* Enable WDT counters 0 and 1 */
  77:.\fonction.c  **** 	CySysWdtEnable(CY_SYS_WDT_COUNTER0_MASK|CY_SYS_WDT_COUNTER1_MASK);
  74              		.loc 1 77 0
  75 0042 0220     		mov	r0, #2
  76 0044 FF30     		add	r0, r0, #255
  77 0046 FFF7FEFF 		bl	CySysWdtEnable
  78              	.LVL10:
  78:.\fonction.c  **** 
  79:.\fonction.c  **** }
  79              		.loc 1 79 0
  80              		@ sp needed
  81 004a 10BD     		pop	{r4, pc}
  82              	.L3:
  83              		.align	2
  84              	.L2:
  85 004c 00000000 		.word	isr_wdt
  86              		.cfi_endproc
  87              	.LFE34:
  88              		.size	initialisation_projet, .-initialisation_projet
  89              		.global	__aeabi_i2d
  90              		.global	__aeabi_d2uiz
  91              		.section	.text.accelero_calcul_norme_acc_efficace,"ax",%progbits
  92              		.align	2
ARM GAS  C:\Users\Dylan\AppData\Local\Temp\ccvArTUk.s 			page 4


  93              		.global	accelero_calcul_norme_acc_efficace
  94              		.code	16
  95              		.thumb_func
  96              		.type	accelero_calcul_norme_acc_efficace, %function
  97              	accelero_calcul_norme_acc_efficace:
  98              	.LFB36:
  80:.\fonction.c  **** 
  81:.\fonction.c  **** 
  82:.\fonction.c  **** void accelero_acquisition_efficace(uint16 *a_x, uint16 *a_y, uint16 *a_z, uint8 nb_acquisition, uin
  83:.\fonction.c  ****     
  84:.\fonction.c  ****     uint16 delay = 0; // en microseconde (à cause du 400 Hz)
  85:.\fonction.c  ****     
  86:.\fonction.c  ****     if (output_data_rate == DATA_RATE_25_Hz) delay =  40000;
  87:.\fonction.c  ****     if (output_data_rate == DATA_RATE_50_Hz) delay =  20000;
  88:.\fonction.c  ****     if (output_data_rate == DATA_RATE_100_Hz) delay = 10000;
  89:.\fonction.c  ****     if (output_data_rate == DATA_RATE_200_Hz) delay =  5000;
  90:.\fonction.c  ****     if (output_data_rate == DATA_RATE_400_Hz) delay =  2500;
  91:.\fonction.c  ****     
  92:.\fonction.c  ****     Accelero_Start();
  93:.\fonction.c  ****   
  94:.\fonction.c  ****     uint8 i = 0 ;
  95:.\fonction.c  ****     
  96:.\fonction.c  ****     int16 acc_x = 0 ;
  97:.\fonction.c  ****     int16 acc_y = 0 ;
  98:.\fonction.c  ****     int16 acc_z = 0 ;
  99:.\fonction.c  ****     
 100:.\fonction.c  ****     uint32 sum_square_acc_x = 0;
 101:.\fonction.c  ****     uint32 sum_square_acc_y = 0;
 102:.\fonction.c  ****     uint32 sum_square_acc_z = 0;
 103:.\fonction.c  ****     
 104:.\fonction.c  ****     uint8    buff[6] = {0};
 105:.\fonction.c  **** 
 106:.\fonction.c  ****     //permet de commencer la mesure
 107:.\fonction.c  ****     //le retire de son standby mode
 108:.\fonction.c  ****     accelero_write(POWER_CONTROL_ADDR, MESURE_MODE);
 109:.\fonction.c  ****     CyDelay(40); // datasheet : wakeup time 1.1 ms + 1/(data_rate)
 110:.\fonction.c  ****     
 111:.\fonction.c  ****     //on fait nb_acquisition fois :
 112:.\fonction.c  ****     for ( i = 0 ; i < nb_acquisition ; i++ ) {
 113:.\fonction.c  ****         
 114:.\fonction.c  ****         // on écrit à l'accéléromètre l'adresse de la première donnée à lire
 115:.\fonction.c  ****         uint8 wr_data[1] = {DATA_X_LSB_ADDR};
 116:.\fonction.c  ****         Accelero_I2CMasterWriteBuf(ACCELERO_ADDR,wr_data,1,Accelero_I2C_MODE_COMPLETE_XFER);
 117:.\fonction.c  ****     
 118:.\fonction.c  ****         uint8 x; 
 119:.\fonction.c  ****         do {
 120:.\fonction.c  ****             //on récupère en un envoi, les 6 octets de données (ax_low, ax_high, ay_low, ay_high
 121:.\fonction.c  ****             x = Accelero_I2CMasterReadBuf(ACCELERO_ADDR,buff,6,Accelero_I2C_MODE_COMPLETE_XFER); 
 122:.\fonction.c  ****         }
 123:.\fonction.c  ****         while (x != Accelero_I2C_MSTR_NO_ERROR); // car écriture envoie une erreur si le write n'e
 124:.\fonction.c  ****    
 125:.\fonction.c  ****         //wait for data transfer to complete 
 126:.\fonction.c  ****         while (!(Accelero_I2CMasterStatus() & Accelero_I2C_MSTAT_RD_CMPLT));
 127:.\fonction.c  ****         
 128:.\fonction.c  ****         acc_x = (int16) buff[0] | ((int8)buff[1]<<8);
 129:.\fonction.c  ****         acc_y = (int16) buff[2] | ((int8)buff[3]<<8);
 130:.\fonction.c  ****         acc_z = (int16) buff[4] | ((int8)buff[5]<<8);
ARM GAS  C:\Users\Dylan\AppData\Local\Temp\ccvArTUk.s 			page 5


 131:.\fonction.c  ****     
 132:.\fonction.c  ****         sum_square_acc_x += acc_x * acc_x;
 133:.\fonction.c  ****         sum_square_acc_y += acc_y * acc_y;
 134:.\fonction.c  ****         sum_square_acc_z += acc_z * acc_z;
 135:.\fonction.c  ****         
 136:.\fonction.c  ****         CyDelayUs(delay); //fonction en microsecondes
 137:.\fonction.c  ****         
 138:.\fonction.c  ****     }
 139:.\fonction.c  ****     
 140:.\fonction.c  ****     //remet l'accéléro en standby mode
 141:.\fonction.c  ****     accelero_write(POWER_CONTROL_ADDR, STANDBY_MODE);
 142:.\fonction.c  ****     Accelero_Stop();
 143:.\fonction.c  ****     
 144:.\fonction.c  ****     *a_x = (uint16) sqrt(sum_square_acc_x/nb_acquisition);
 145:.\fonction.c  ****     *a_y = (uint16) sqrt(sum_square_acc_y/nb_acquisition);
 146:.\fonction.c  ****     *a_z = (uint16) sqrt(sum_square_acc_z/nb_acquisition);
 147:.\fonction.c  ****     
 148:.\fonction.c  **** }
 149:.\fonction.c  **** 
 150:.\fonction.c  **** uint16 accelero_calcul_norme_acc_efficace(uint16 a_x, uint16 a_y, uint16 a_z){
  99              		.loc 1 150 0
 100              		.cfi_startproc
 101              	.LVL11:
 102 0000 10B5     		push	{r4, lr}
 103              		.cfi_def_cfa_offset 8
 104              		.cfi_offset 4, -8
 105              		.cfi_offset 14, -4
 151:.\fonction.c  **** 
 152:.\fonction.c  ****     return sqrt( a_x * a_x + a_y * a_y + a_z * a_z );
 106              		.loc 1 152 0
 107 0002 4043     		mul	r0, r0
 108              	.LVL12:
 109 0004 4943     		mul	r1, r1
 110              	.LVL13:
 111 0006 4418     		add	r4, r0, r1
 112 0008 5243     		mul	r2, r2
 113              	.LVL14:
 114 000a A418     		add	r4, r4, r2
 115 000c 201C     		mov	r0, r4
 116 000e FFF7FEFF 		bl	__aeabi_i2d
 117              	.LVL15:
 118 0012 FFF7FEFF 		bl	sqrt
 119              	.LVL16:
 120 0016 FFF7FEFF 		bl	__aeabi_d2uiz
 121              	.LVL17:
 122 001a 80B2     		uxth	r0, r0
 153:.\fonction.c  **** 
 154:.\fonction.c  **** }
 123              		.loc 1 154 0
 124              		@ sp needed
 125 001c 10BD     		pop	{r4, pc}
 126              		.cfi_endproc
 127              	.LFE36:
 128              		.size	accelero_calcul_norme_acc_efficace, .-accelero_calcul_norme_acc_efficace
 129 001e C046     		.section	.text.accelero_transmission,"ax",%progbits
 130              		.align	2
 131              		.global	accelero_transmission
ARM GAS  C:\Users\Dylan\AppData\Local\Temp\ccvArTUk.s 			page 6


 132              		.code	16
 133              		.thumb_func
 134              		.type	accelero_transmission, %function
 135              	accelero_transmission:
 136              	.LFB37:
 155:.\fonction.c  **** 
 156:.\fonction.c  **** void accelero_transmission(uint16 a_x, uint16 a_y, uint16 a_z, uint16 a_globale){
 137              		.loc 1 156 0
 138              		.cfi_startproc
 139              	.LVL18:
 140 0000 30B5     		push	{r4, r5, lr}
 141              		.cfi_def_cfa_offset 12
 142              		.cfi_offset 4, -12
 143              		.cfi_offset 5, -8
 144              		.cfi_offset 14, -4
 145 0002 83B0     		sub	sp, sp, #12
 146              		.cfi_def_cfa_offset 24
 157:.\fonction.c  ****     
 158:.\fonction.c  ****     /*PC_Start();
 159:.\fonction.c  ****     char str[15] = {'\0'};
 160:.\fonction.c  ****     
 161:.\fonction.c  ****     PC_UartPutString("debut\n\r\n\r");
 162:.\fonction.c  ****     
 163:.\fonction.c  ****     sprintf(str, "acc_x : %d\n\r", a_x);
 164:.\fonction.c  ****     PC_UartPutString(str);
 165:.\fonction.c  ****     
 166:.\fonction.c  ****     sprintf(str, "acc_y : %d\n\r", a_y);
 167:.\fonction.c  ****     PC_UartPutString(str);
 168:.\fonction.c  ****     
 169:.\fonction.c  ****     sprintf(str, "acc_z : %d\n\r", a_z);
 170:.\fonction.c  ****     PC_UartPutString(str);
 171:.\fonction.c  ****     
 172:.\fonction.c  ****     sprintf(str, "acc_tot : %d\n\r\n\r", a_globale);
 173:.\fonction.c  ****     PC_UartPutString(str);
 174:.\fonction.c  ****     CyDelay(10);
 175:.\fonction.c  ****     PC_Sleep();*/
 176:.\fonction.c  ****     
 177:.\fonction.c  ****     uint8 data[6] = {0};
 178:.\fonction.c  ****     data[0] = (uint8)( ((a_x >>7) & 0x3F) + FLAG_TRANSMISSION_X);
 147              		.loc 1 178 0
 148 0004 C409     		lsr	r4, r0, #7
 149 0006 3F25     		mov	r5, #63
 150 0008 2C40     		and	r4, r5
 151 000a 403C     		sub	r4, r4, #64
 152 000c 6B46     		mov	r3, sp
 153              	.LVL19:
 154 000e 1C70     		strb	r4, [r3]
 179:.\fonction.c  ****     data[1] = a_x & 0x7F ;
 155              		.loc 1 179 0
 156 0010 7F24     		mov	r4, #127
 157 0012 2040     		and	r0, r4
 158              	.LVL20:
 159 0014 5870     		strb	r0, [r3, #1]
 180:.\fonction.c  ****     data[2] = (uint8)( ((a_y >>7) & 0x3F) + FLAG_TRANSMISSION_Y_Z);
 160              		.loc 1 180 0
 161 0016 C809     		lsr	r0, r1, #7
 162 0018 2840     		and	r0, r5
ARM GAS  C:\Users\Dylan\AppData\Local\Temp\ccvArTUk.s 			page 7


 163 001a 8038     		sub	r0, r0, #128
 164 001c 9870     		strb	r0, [r3, #2]
 181:.\fonction.c  ****     data[3] = a_y &  0x7F ;
 165              		.loc 1 181 0
 166 001e 2140     		and	r1, r4
 167              	.LVL21:
 168 0020 D970     		strb	r1, [r3, #3]
 182:.\fonction.c  ****     data[4] = (uint8)( ((a_z >>7) & 0x3F) + FLAG_TRANSMISSION_Y_Z);
 169              		.loc 1 182 0
 170 0022 D309     		lsr	r3, r2, #7
 171 0024 2B40     		and	r3, r5
 172 0026 803B     		sub	r3, r3, #128
 173 0028 6946     		mov	r1, sp
 174 002a 0B71     		strb	r3, [r1, #4]
 183:.\fonction.c  ****     data[5] = a_z & 0x7F;
 175              		.loc 1 183 0
 176 002c 2240     		and	r2, r4
 177              	.LVL22:
 178 002e 4A71     		strb	r2, [r1, #5]
 184:.\fonction.c  ****     
 185:.\fonction.c  ****     Pin_gestion_sleep_xbee_SetDriveMode(Pin_gestion_sleep_xbee_DM_STRONG);         
 179              		.loc 1 185 0
 180 0030 0620     		mov	r0, #6
 181 0032 FFF7FEFF 		bl	Pin_gestion_sleep_xbee_SetDriveMode
 182              	.LVL23:
 186:.\fonction.c  ****     Pin_gestion_sleep_xbee_Write(0u);
 183              		.loc 1 186 0
 184 0036 0020     		mov	r0, #0
 185 0038 FFF7FEFF 		bl	Pin_gestion_sleep_xbee_Write
 186              	.LVL24:
 187:.\fonction.c  ****     CyDelay(10); // temps de réveil du xbee
 187              		.loc 1 187 0
 188 003c 0A20     		mov	r0, #10
 189 003e FFF7FEFF 		bl	CyDelay
 190              	.LVL25:
 188:.\fonction.c  ****     
 189:.\fonction.c  ****     Pin_tx_SetDriveMode(Pin_tx_DM_STRONG);
 191              		.loc 1 189 0
 192 0042 0620     		mov	r0, #6
 193 0044 FFF7FEFF 		bl	Pin_tx_SetDriveMode
 194              	.LVL26:
 190:.\fonction.c  ****     zigbee_Start();
 195              		.loc 1 190 0
 196 0048 FFF7FEFF 		bl	zigbee_Start
 197              	.LVL27:
 191:.\fonction.c  ****     
 192:.\fonction.c  ****     zigbee_PutArray(data,6);
 198              		.loc 1 192 0
 199 004c 6846     		mov	r0, sp
 200 004e 0621     		mov	r1, #6
 201 0050 FFF7FEFF 		bl	zigbee_PutArray
 202              	.LVL28:
 193:.\fonction.c  ****     CyDelay(50); // delay car il supprime la fin des données, à tester plus court
 203              		.loc 1 193 0
 204 0054 3220     		mov	r0, #50
 205 0056 FFF7FEFF 		bl	CyDelay
 206              	.LVL29:
ARM GAS  C:\Users\Dylan\AppData\Local\Temp\ccvArTUk.s 			page 8


 207              	.L6:
 194:.\fonction.c  ****     while ( !(zigbee_GetTxBufferSize()==0));
 208              		.loc 1 194 0 discriminator 1
 209 005a FFF7FEFF 		bl	zigbee_GetTxBufferSize
 210              	.LVL30:
 211 005e 0028     		cmp	r0, #0
 212 0060 FBD1     		bne	.L6
 195:.\fonction.c  ****     
 196:.\fonction.c  ****     zigbee_Sleep();
 213              		.loc 1 196 0
 214 0062 FFF7FEFF 		bl	zigbee_Sleep
 215              	.LVL31:
 197:.\fonction.c  ****     CyDelay(5);
 216              		.loc 1 197 0
 217 0066 0520     		mov	r0, #5
 218 0068 FFF7FEFF 		bl	CyDelay
 219              	.LVL32:
 198:.\fonction.c  ****     
 199:.\fonction.c  ****     Pin_tx_SetDriveMode(Pin_tx_DM_DIG_HIZ);
 220              		.loc 1 199 0
 221 006c 0120     		mov	r0, #1
 222 006e FFF7FEFF 		bl	Pin_tx_SetDriveMode
 223              	.LVL33:
 200:.\fonction.c  ****     Pin_gestion_sleep_xbee_SetDriveMode(Pin_gestion_sleep_xbee_DM_DIG_HIZ);
 224              		.loc 1 200 0
 225 0072 0120     		mov	r0, #1
 226 0074 FFF7FEFF 		bl	Pin_gestion_sleep_xbee_SetDriveMode
 227              	.LVL34:
 201:.\fonction.c  ****     Pin_gestion_sleep_xbee_Write(1u);
 228              		.loc 1 201 0
 229 0078 0120     		mov	r0, #1
 230 007a FFF7FEFF 		bl	Pin_gestion_sleep_xbee_Write
 231              	.LVL35:
 202:.\fonction.c  ****     
 203:.\fonction.c  **** }
 232              		.loc 1 203 0
 233 007e 03B0     		add	sp, sp, #12
 234              		@ sp needed
 235 0080 30BD     		pop	{r4, r5, pc}
 236              		.cfi_endproc
 237              	.LFE37:
 238              		.size	accelero_transmission, .-accelero_transmission
 239 0082 C046     		.section	.text.accelero_read,"ax",%progbits
 240              		.align	2
 241              		.global	accelero_read
 242              		.code	16
 243              		.thumb_func
 244              		.type	accelero_read, %function
 245              	accelero_read:
 246              	.LFB38:
 204:.\fonction.c  **** 
 205:.\fonction.c  **** /*
 206:.\fonction.c  **** void accelero_transmission_une_voie(uint16 a, int16 flag){
 207:.\fonction.c  ****     
 208:.\fonction.c  ****     int8 a_LSB = 0 ;
 209:.\fonction.c  ****     int8 a_MSB = 0 ;
 210:.\fonction.c  ****     
ARM GAS  C:\Users\Dylan\AppData\Local\Temp\ccvArTUk.s 			page 9


 211:.\fonction.c  ****     // Pour la transmission le bit de poids le plus fort de a_LSB est un zéro 
 212:.\fonction.c  ****     // Les 7 autres bits sont de la donnée
 213:.\fonction.c  ****     a_LSB = (int8)(a & 0x7F); 
 214:.\fonction.c  ****     
 215:.\fonction.c  ****     // les deux bits de poids le plus fort de a_MSB sont un 11 pour a_x et 10 pour a_y et a_z
 216:.\fonction.c  ****     // les 6 autres bits sont de la donnée
 217:.\fonction.c  ****     a_MSB = (int8)( (a>>7) & 0x3F);
 218:.\fonction.c  ****     a_MSB+= flag;
 219:.\fonction.c  ****     
 220:.\fonction.c  ****     
 221:.\fonction.c  ****     XBee_UartPutChar(a_MSB);
 222:.\fonction.c  ****     XBee_UartPutChar(a_LSB);
 223:.\fonction.c  ****     
 224:.\fonction.c  ****     //on attend d'être sur d'avoir tout transmis.
 225:.\fonction.c  ****     while ( !(XBee_SpiUartGetTxBufferSize()==0));
 226:.\fonction.c  ****     
 227:.\fonction.c  **** }*/
 228:.\fonction.c  **** 
 229:.\fonction.c  **** 
 230:.\fonction.c  **** 
 231:.\fonction.c  **** uint8 accelero_read(uint8 register_adress){
 247              		.loc 1 231 0
 248              		.cfi_startproc
 249              	.LVL36:
 250 0000 00B5     		push	{lr}
 251              		.cfi_def_cfa_offset 4
 252              		.cfi_offset 14, -4
 253 0002 83B0     		sub	sp, sp, #12
 254              		.cfi_def_cfa_offset 16
 232:.\fonction.c  **** 
 233:.\fonction.c  ****     uint8 x;
 234:.\fonction.c  ****     uint8 rd_data = 123;
 255              		.loc 1 234 0
 256 0004 7B22     		mov	r2, #123
 257 0006 6B46     		mov	r3, sp
 258 0008 DA71     		strb	r2, [r3, #7]
 259              	.LBB2:
 235:.\fonction.c  ****     
 236:.\fonction.c  ****     do {
 237:.\fonction.c  ****         uint8 wr_data[1] = {register_adress};
 260              		.loc 1 237 0
 261 000a 01A9     		add	r1, sp, #4
 262 000c 0870     		strb	r0, [r1]
 238:.\fonction.c  ****         x = Accelero_I2CMasterWriteBuf(ACCELERO_ADDR,wr_data,1,Accelero_I2C_MODE_COMPLETE_XFER);
 263              		.loc 1 238 0
 264 000e 1D20     		mov	r0, #29
 265              	.LVL37:
 266 0010 7A3A     		sub	r2, r2, #122
 267 0012 0023     		mov	r3, #0
 268 0014 FFF7FEFF 		bl	Accelero_I2CMasterWriteBuf
 269              	.LVL38:
 270              	.L8:
 271              	.LBE2:
 239:.\fonction.c  ****     }
 240:.\fonction.c  ****     while (0); //x != Accelero_I2C_MSTR_NO_ERROR
 241:.\fonction.c  ****     
 242:.\fonction.c  ****     do {
ARM GAS  C:\Users\Dylan\AppData\Local\Temp\ccvArTUk.s 			page 10


 243:.\fonction.c  ****         x = Accelero_I2CMasterReadBuf(ACCELERO_ADDR,&rd_data,1,Accelero_I2C_MODE_COMPLETE_XFER); 
 272              		.loc 1 243 0 discriminator 1
 273 0018 1D20     		mov	r0, #29
 274 001a 6B46     		mov	r3, sp
 275 001c D91D     		add	r1, r3, #7
 276 001e 0122     		mov	r2, #1
 277 0020 0023     		mov	r3, #0
 278 0022 FFF7FEFF 		bl	Accelero_I2CMasterReadBuf
 279              	.LVL39:
 280 0026 C0B2     		uxtb	r0, r0
 281              	.LVL40:
 244:.\fonction.c  ****     }
 245:.\fonction.c  ****     while (x != Accelero_I2C_MSTR_NO_ERROR); // car écriture envoie une erreur si le write n'est p
 282              		.loc 1 245 0 discriminator 1
 283 0028 0028     		cmp	r0, #0
 284 002a F5D1     		bne	.L8
 285              	.LVL41:
 286              	.L9:
 246:.\fonction.c  ****     
 247:.\fonction.c  ****    
 248:.\fonction.c  ****     //wait for data transfer to complete 
 249:.\fonction.c  ****     while (!(Accelero_I2CMasterStatus() & Accelero_I2C_MSTAT_RD_CMPLT));
 287              		.loc 1 249 0 discriminator 1
 288 002c FFF7FEFF 		bl	Accelero_I2CMasterStatus
 289              	.LVL42:
 290 0030 C307     		lsl	r3, r0, #31
 291 0032 FBD5     		bpl	.L9
 250:.\fonction.c  ****     
 251:.\fonction.c  ****     return rd_data;
 292              		.loc 1 251 0
 293 0034 6B46     		mov	r3, sp
 294 0036 D879     		ldrb	r0, [r3, #7]
 252:.\fonction.c  **** }
 295              		.loc 1 252 0
 296 0038 03B0     		add	sp, sp, #12
 297              		@ sp needed
 298 003a 00BD     		pop	{pc}
 299              		.cfi_endproc
 300              	.LFE38:
 301              		.size	accelero_read, .-accelero_read
 302              		.section	.text.accelero_write,"ax",%progbits
 303              		.align	2
 304              		.global	accelero_write
 305              		.code	16
 306              		.thumb_func
 307              		.type	accelero_write, %function
 308              	accelero_write:
 309              	.LFB39:
 253:.\fonction.c  **** 
 254:.\fonction.c  **** void accelero_write( uint8 register_adress, uint8 wr_data){
 310              		.loc 1 254 0
 311              		.cfi_startproc
 312              	.LVL43:
 313 0000 00B5     		push	{lr}
 314              		.cfi_def_cfa_offset 4
 315              		.cfi_offset 14, -4
 316 0002 83B0     		sub	sp, sp, #12
ARM GAS  C:\Users\Dylan\AppData\Local\Temp\ccvArTUk.s 			page 11


 317              		.cfi_def_cfa_offset 16
 255:.\fonction.c  ****     
 256:.\fonction.c  ****     uint8  buffer[2];
 257:.\fonction.c  **** 
 258:.\fonction.c  ****     /* Initialize buffer with packet */
 259:.\fonction.c  ****     buffer[0] = register_adress;
 318              		.loc 1 259 0
 319 0004 01AB     		add	r3, sp, #4
 320 0006 1870     		strb	r0, [r3]
 260:.\fonction.c  ****     buffer[1] = wr_data;
 321              		.loc 1 260 0
 322 0008 5970     		strb	r1, [r3, #1]
 261:.\fonction.c  ****   
 262:.\fonction.c  ****     Accelero_I2CMasterWriteBuf(ACCELERO_ADDR, buffer, 2 ,Accelero_I2C_MODE_COMPLETE_XFER);
 323              		.loc 1 262 0
 324 000a 1D20     		mov	r0, #29
 325              	.LVL44:
 326 000c 191C     		mov	r1, r3
 327              	.LVL45:
 328 000e 0222     		mov	r2, #2
 329 0010 0023     		mov	r3, #0
 330              	.LVL46:
 331 0012 FFF7FEFF 		bl	Accelero_I2CMasterWriteBuf
 332              	.LVL47:
 333              	.L11:
 263:.\fonction.c  **** 
 264:.\fonction.c  ****     /* Waits until master completes write transfer */
 265:.\fonction.c  ****     while (0u == (Accelero_I2CMasterStatus() & Accelero_I2C_MSTAT_WR_CMPLT));  
 334              		.loc 1 265 0 discriminator 1
 335 0016 FFF7FEFF 		bl	Accelero_I2CMasterStatus
 336              	.LVL48:
 337 001a 8307     		lsl	r3, r0, #30
 338 001c FBD5     		bpl	.L11
 266:.\fonction.c  **** 
 267:.\fonction.c  **** }
 339              		.loc 1 267 0
 340 001e 03B0     		add	sp, sp, #12
 341              		@ sp needed
 342 0020 00BD     		pop	{pc}
 343              		.cfi_endproc
 344              	.LFE39:
 345              		.size	accelero_write, .-accelero_write
 346 0022 C046     		.section	.text.accelero_init,"ax",%progbits
 347              		.align	2
 348              		.global	accelero_init
 349              		.code	16
 350              		.thumb_func
 351              		.type	accelero_init, %function
 352              	accelero_init:
 353              	.LFB33:
  39:.\fonction.c  ****     
 354              		.loc 1 39 0
 355              		.cfi_startproc
 356              	.LVL49:
 357 0000 70B5     		push	{r4, r5, r6, lr}
 358              		.cfi_def_cfa_offset 16
 359              		.cfi_offset 4, -16
ARM GAS  C:\Users\Dylan\AppData\Local\Temp\ccvArTUk.s 			page 12


 360              		.cfi_offset 5, -12
 361              		.cfi_offset 6, -8
 362              		.cfi_offset 14, -4
 363 0002 061C     		mov	r6, r0
 364 0004 0C1C     		mov	r4, r1
 365 0006 151C     		mov	r5, r2
  41:.\fonction.c  ****     // écrit la range et la resolution
 366              		.loc 1 41 0
 367 0008 FFF7FEFF 		bl	Accelero_Start
 368              	.LVL50:
  43:.\fonction.c  ****     
 369              		.loc 1 43 0
 370 000c 3443     		orr	r4, r6
 371              	.LVL51:
 372 000e E1B2     		uxtb	r1, r4
 373 0010 3120     		mov	r0, #49
 374 0012 FFF7FEFF 		bl	accelero_write
 375              	.LVL52:
  46:.\fonction.c  ****     
 376              		.loc 1 46 0
 377 0016 1021     		mov	r1, #16
 378 0018 2A1C     		mov	r2, r5
 379 001a 0A43     		orr	r2, r1
 380 001c D1B2     		uxtb	r1, r2
 381 001e 2C20     		mov	r0, #44
 382 0020 FFF7FEFF 		bl	accelero_write
 383              	.LVL53:
  48:.\fonction.c  **** }
 384              		.loc 1 48 0
 385 0024 FFF7FEFF 		bl	Accelero_Stop
 386              	.LVL54:
  49:.\fonction.c  **** 
 387              		.loc 1 49 0
 388              		@ sp needed
 389              	.LVL55:
 390              	.LVL56:
 391 0028 70BD     		pop	{r4, r5, r6, pc}
 392              		.cfi_endproc
 393              	.LFE33:
 394              		.size	accelero_init, .-accelero_init
 395              		.global	__aeabi_uidiv
 396              		.global	__aeabi_ui2d
 397 002a C046     		.section	.text.accelero_acquisition_efficace,"ax",%progbits
 398              		.align	2
 399              		.global	accelero_acquisition_efficace
 400              		.code	16
 401              		.thumb_func
 402              		.type	accelero_acquisition_efficace, %function
 403              	accelero_acquisition_efficace:
 404              	.LFB35:
  82:.\fonction.c  ****     
 405              		.loc 1 82 0
 406              		.cfi_startproc
 407              	.LVL57:
 408 0000 F0B5     		push	{r4, r5, r6, r7, lr}
 409              		.cfi_def_cfa_offset 20
 410              		.cfi_offset 4, -20
ARM GAS  C:\Users\Dylan\AppData\Local\Temp\ccvArTUk.s 			page 13


 411              		.cfi_offset 5, -16
 412              		.cfi_offset 6, -12
 413              		.cfi_offset 7, -8
 414              		.cfi_offset 14, -4
 415 0002 5F46     		mov	r7, fp
 416 0004 5646     		mov	r6, r10
 417 0006 4D46     		mov	r5, r9
 418 0008 4446     		mov	r4, r8
 419 000a F0B4     		push	{r4, r5, r6, r7}
 420              		.cfi_def_cfa_offset 36
 421              		.cfi_offset 8, -36
 422              		.cfi_offset 9, -32
 423              		.cfi_offset 10, -28
 424              		.cfi_offset 11, -24
 425 000c 89B0     		sub	sp, sp, #36
 426              		.cfi_def_cfa_offset 72
 427 000e 8046     		mov	r8, r0
 428 0010 0291     		str	r1, [sp, #8]
 429 0012 0392     		str	r2, [sp, #12]
 430 0014 9946     		mov	r9, r3
 431 0016 12AB     		add	r3, sp, #72
 432              	.LVL58:
 433 0018 1B88     		ldrh	r3, [r3]
 434              	.LVL59:
  86:.\fonction.c  ****     if (output_data_rate == DATA_RATE_50_Hz) delay =  20000;
 435              		.loc 1 86 0
 436 001a 082B     		cmp	r3, #8
 437 001c 02D0     		beq	.L23
  84:.\fonction.c  ****     
 438              		.loc 1 84 0
 439 001e 0022     		mov	r2, #0
 440              	.LVL60:
 441 0020 0192     		str	r2, [sp, #4]
 442 0022 01E0     		b	.L14
 443              	.LVL61:
 444              	.L23:
  86:.\fonction.c  ****     if (output_data_rate == DATA_RATE_50_Hz) delay =  20000;
 445              		.loc 1 86 0
 446 0024 494A     		ldr	r2, .L28
 447              	.LVL62:
 448 0026 0192     		str	r2, [sp, #4]
 449              	.L14:
 450              	.LVL63:
  87:.\fonction.c  ****     if (output_data_rate == DATA_RATE_100_Hz) delay = 10000;
 451              		.loc 1 87 0
 452 0028 092B     		cmp	r3, #9
 453 002a 01D1     		bne	.L15
 454 002c 484A     		ldr	r2, .L28+4
 455 002e 0192     		str	r2, [sp, #4]
 456              	.LVL64:
 457              	.L15:
  88:.\fonction.c  ****     if (output_data_rate == DATA_RATE_200_Hz) delay =  5000;
 458              		.loc 1 88 0
 459 0030 0A2B     		cmp	r3, #10
 460 0032 01D1     		bne	.L16
 461 0034 474A     		ldr	r2, .L28+8
 462 0036 0192     		str	r2, [sp, #4]
ARM GAS  C:\Users\Dylan\AppData\Local\Temp\ccvArTUk.s 			page 14


 463              	.LVL65:
 464              	.L16:
  89:.\fonction.c  ****     if (output_data_rate == DATA_RATE_400_Hz) delay =  2500;
 465              		.loc 1 89 0
 466 0038 0B2B     		cmp	r3, #11
 467 003a 01D1     		bne	.L17
 468 003c 464A     		ldr	r2, .L28+12
 469 003e 0192     		str	r2, [sp, #4]
 470              	.LVL66:
 471              	.L17:
  90:.\fonction.c  ****     
 472              		.loc 1 90 0
 473 0040 0C2B     		cmp	r3, #12
 474 0042 01D1     		bne	.L18
 475 0044 454B     		ldr	r3, .L28+16
 476 0046 0193     		str	r3, [sp, #4]
 477              	.LVL67:
 478              	.L18:
  92:.\fonction.c  ****   
 479              		.loc 1 92 0
 480 0048 FFF7FEFF 		bl	Accelero_Start
 481              	.LVL68:
 104:.\fonction.c  **** 
 482              		.loc 1 104 0
 483 004c 0023     		mov	r3, #0
 484 004e 0693     		str	r3, [sp, #24]
 485 0050 06AA     		add	r2, sp, #24
 486 0052 9380     		strh	r3, [r2, #4]
 108:.\fonction.c  ****     CyDelay(40); // datasheet : wakeup time 1.1 ms + 1/(data_rate)
 487              		.loc 1 108 0
 488 0054 2D20     		mov	r0, #45
 489 0056 0821     		mov	r1, #8
 490 0058 FFF7FEFF 		bl	accelero_write
 491              	.LVL69:
 109:.\fonction.c  ****     
 492              		.loc 1 109 0
 493 005c 2820     		mov	r0, #40
 494 005e FFF7FEFF 		bl	CyDelay
 495              	.LVL70:
 102:.\fonction.c  ****     
 496              		.loc 1 102 0
 497 0062 0024     		mov	r4, #0
 101:.\fonction.c  ****     uint32 sum_square_acc_z = 0;
 498              		.loc 1 101 0
 499 0064 0025     		mov	r5, #0
 100:.\fonction.c  ****     uint32 sum_square_acc_y = 0;
 500              		.loc 1 100 0
 501 0066 0026     		mov	r6, #0
 112:.\fonction.c  ****         
 502              		.loc 1 112 0
 503 0068 0027     		mov	r7, #0
 504 006a 35E0     		b	.L19
 505              	.LVL71:
 506              	.L22:
 507              	.LBB3:
 115:.\fonction.c  ****         Accelero_I2CMasterWriteBuf(ACCELERO_ADDR,wr_data,1,Accelero_I2C_MODE_COMPLETE_XFER);
 508              		.loc 1 115 0
ARM GAS  C:\Users\Dylan\AppData\Local\Temp\ccvArTUk.s 			page 15


 509 006c 05A9     		add	r1, sp, #20
 510 006e 3223     		mov	r3, #50
 511 0070 0B70     		strb	r3, [r1]
 116:.\fonction.c  ****     
 512              		.loc 1 116 0
 513 0072 1D20     		mov	r0, #29
 514 0074 0122     		mov	r2, #1
 515 0076 0023     		mov	r3, #0
 516 0078 FFF7FEFF 		bl	Accelero_I2CMasterWriteBuf
 517              	.LVL72:
 518              	.L20:
 121:.\fonction.c  ****         }
 519              		.loc 1 121 0 discriminator 1
 520 007c 1D20     		mov	r0, #29
 521 007e 06A9     		add	r1, sp, #24
 522 0080 0622     		mov	r2, #6
 523 0082 0023     		mov	r3, #0
 524 0084 FFF7FEFF 		bl	Accelero_I2CMasterReadBuf
 525              	.LVL73:
 526 0088 C0B2     		uxtb	r0, r0
 527              	.LVL74:
 123:.\fonction.c  ****    
 528              		.loc 1 123 0 discriminator 1
 529 008a 0028     		cmp	r0, #0
 530 008c F6D1     		bne	.L20
 531              	.LVL75:
 532              	.L21:
 126:.\fonction.c  ****         
 533              		.loc 1 126 0 discriminator 1
 534 008e FFF7FEFF 		bl	Accelero_I2CMasterStatus
 535              	.LVL76:
 536 0092 C307     		lsl	r3, r0, #31
 537 0094 FBD5     		bpl	.L21
 128:.\fonction.c  ****         acc_y = (int16) buff[2] | ((int8)buff[3]<<8);
 538              		.loc 1 128 0 discriminator 2
 539 0096 06AA     		add	r2, sp, #24
 540 0098 1378     		ldrb	r3, [r2]
 541 009a 9A46     		mov	r10, r3
 542 009c 0120     		mov	r0, #1
 543 009e 1056     		ldrsb	r0, [r2, r0]
 544 00a0 0002     		lsl	r0, r0, #8
 545              	.LVL77:
 129:.\fonction.c  ****         acc_z = (int16) buff[4] | ((int8)buff[5]<<8);
 546              		.loc 1 129 0 discriminator 2
 547 00a2 9378     		ldrb	r3, [r2, #2]
 548              	.LVL78:
 549 00a4 9C46     		mov	ip, r3
 550 00a6 0321     		mov	r1, #3
 551 00a8 5156     		ldrsb	r1, [r2, r1]
 552 00aa 0902     		lsl	r1, r1, #8
 553              	.LVL79:
 130:.\fonction.c  ****     
 554              		.loc 1 130 0 discriminator 2
 555 00ac 1379     		ldrb	r3, [r2, #4]
 556              	.LVL80:
 557 00ae 9B46     		mov	fp, r3
 558 00b0 5279     		ldrb	r2, [r2, #5]
ARM GAS  C:\Users\Dylan\AppData\Local\Temp\ccvArTUk.s 			page 16


 559 00b2 52B2     		sxtb	r2, r2
 560 00b4 1202     		lsl	r2, r2, #8
 561              	.LVL81:
 132:.\fonction.c  ****         sum_square_acc_y += acc_y * acc_y;
 562              		.loc 1 132 0 discriminator 2
 563 00b6 5346     		mov	r3, r10
 564              	.LVL82:
 565 00b8 1843     		orr	r0, r3
 566              	.LVL83:
 567 00ba 4043     		mul	r0, r0
 568 00bc 3618     		add	r6, r6, r0
 569              	.LVL84:
 133:.\fonction.c  ****         sum_square_acc_z += acc_z * acc_z;
 570              		.loc 1 133 0 discriminator 2
 571 00be 6346     		mov	r3, ip
 572 00c0 1943     		orr	r1, r3
 573              	.LVL85:
 574 00c2 4943     		mul	r1, r1
 575 00c4 6D18     		add	r5, r5, r1
 576              	.LVL86:
 134:.\fonction.c  ****         
 577              		.loc 1 134 0 discriminator 2
 578 00c6 5B46     		mov	r3, fp
 579 00c8 1343     		orr	r3, r2
 580 00ca 5B43     		mul	r3, r3
 581 00cc E418     		add	r4, r4, r3
 582              	.LVL87:
 136:.\fonction.c  ****         
 583              		.loc 1 136 0 discriminator 2
 584 00ce 0198     		ldr	r0, [sp, #4]
 585 00d0 FFF7FEFF 		bl	CyDelayUs
 586              	.LVL88:
 587              	.LBE3:
 112:.\fonction.c  ****         
 588              		.loc 1 112 0 discriminator 2
 589 00d4 0137     		add	r7, r7, #1
 590              	.LVL89:
 591 00d6 FFB2     		uxtb	r7, r7
 592              	.LVL90:
 593              	.L19:
 112:.\fonction.c  ****         
 594              		.loc 1 112 0 is_stmt 0 discriminator 1
 595 00d8 4F45     		cmp	r7, r9
 596 00da C7D3     		bcc	.L22
 141:.\fonction.c  ****     Accelero_Stop();
 597              		.loc 1 141 0 is_stmt 1
 598 00dc 2D20     		mov	r0, #45
 599 00de 0021     		mov	r1, #0
 600 00e0 FFF7FEFF 		bl	accelero_write
 601              	.LVL91:
 142:.\fonction.c  ****     
 602              		.loc 1 142 0
 603 00e4 FFF7FEFF 		bl	Accelero_Stop
 604              	.LVL92:
 144:.\fonction.c  ****     *a_y = (uint16) sqrt(sum_square_acc_y/nb_acquisition);
 605              		.loc 1 144 0
 606 00e8 301C     		mov	r0, r6
ARM GAS  C:\Users\Dylan\AppData\Local\Temp\ccvArTUk.s 			page 17


 607 00ea 4946     		mov	r1, r9
 608 00ec FFF7FEFF 		bl	__aeabi_uidiv
 609              	.LVL93:
 610 00f0 061C     		mov	r6, r0
 611              	.LVL94:
 612 00f2 301C     		mov	r0, r6
 613 00f4 FFF7FEFF 		bl	__aeabi_ui2d
 614              	.LVL95:
 615 00f8 FFF7FEFF 		bl	sqrt
 616              	.LVL96:
 617 00fc FFF7FEFF 		bl	__aeabi_d2uiz
 618              	.LVL97:
 619 0100 4346     		mov	r3, r8
 620 0102 1880     		strh	r0, [r3]
 145:.\fonction.c  ****     *a_z = (uint16) sqrt(sum_square_acc_z/nb_acquisition);
 621              		.loc 1 145 0
 622 0104 281C     		mov	r0, r5
 623 0106 4946     		mov	r1, r9
 624 0108 FFF7FEFF 		bl	__aeabi_uidiv
 625              	.LVL98:
 626 010c 051C     		mov	r5, r0
 627              	.LVL99:
 628 010e 281C     		mov	r0, r5
 629 0110 FFF7FEFF 		bl	__aeabi_ui2d
 630              	.LVL100:
 631 0114 FFF7FEFF 		bl	sqrt
 632              	.LVL101:
 633 0118 FFF7FEFF 		bl	__aeabi_d2uiz
 634              	.LVL102:
 635 011c 029B     		ldr	r3, [sp, #8]
 636 011e 1880     		strh	r0, [r3]
 146:.\fonction.c  ****     
 637              		.loc 1 146 0
 638 0120 201C     		mov	r0, r4
 639 0122 4946     		mov	r1, r9
 640 0124 FFF7FEFF 		bl	__aeabi_uidiv
 641              	.LVL103:
 642 0128 041C     		mov	r4, r0
 643              	.LVL104:
 644 012a 201C     		mov	r0, r4
 645 012c FFF7FEFF 		bl	__aeabi_ui2d
 646              	.LVL105:
 647 0130 FFF7FEFF 		bl	sqrt
 648              	.LVL106:
 649 0134 FFF7FEFF 		bl	__aeabi_d2uiz
 650              	.LVL107:
 651 0138 039B     		ldr	r3, [sp, #12]
 652 013a 1880     		strh	r0, [r3]
 148:.\fonction.c  **** 
 653              		.loc 1 148 0
 654 013c 09B0     		add	sp, sp, #36
 655              		@ sp needed
 656              	.LVL108:
 657              	.LVL109:
 658 013e 3CBC     		pop	{r2, r3, r4, r5}
 659 0140 9046     		mov	r8, r2
 660 0142 9946     		mov	r9, r3
ARM GAS  C:\Users\Dylan\AppData\Local\Temp\ccvArTUk.s 			page 18


 661 0144 A246     		mov	r10, r4
 662 0146 AB46     		mov	fp, r5
 663 0148 F0BD     		pop	{r4, r5, r6, r7, pc}
 664              	.L29:
 665 014a C046     		.align	2
 666              	.L28:
 667 014c 409C0000 		.word	40000
 668 0150 204E0000 		.word	20000
 669 0154 10270000 		.word	10000
 670 0158 88130000 		.word	5000
 671 015c C4090000 		.word	2500
 672              		.cfi_endproc
 673              	.LFE35:
 674              		.size	accelero_acquisition_efficace, .-accelero_acquisition_efficace
 675              		.text
 676              	.Letext0:
 677              		.file 2 "Generated_Source\\PSoC4/cytypes.h"
 678              		.file 3 "Generated_Source\\PSoC4/WdtIsr.h"
 679              		.file 4 "Generated_Source\\PSoC4/CyLFClk.h"
 680              		.file 5 "Generated_Source\\PSoC4/Pin_gestion_sleep_xbee.h"
 681              		.file 6 "Generated_Source\\PSoC4/CyLib.h"
 682              		.file 7 "Generated_Source\\PSoC4/Pin_tx.h"
 683              		.file 8 "Generated_Source\\PSoC4/zigbee.h"
 684              		.file 9 "c:\\program files (x86)\\cypress\\psoc creator\\3.3\\psoc creator\\import\\gnu\\arm\\4.9.
 685              		.file 10 "Generated_Source\\PSoC4/Accelero_I2C.h"
 686              		.file 11 "Generated_Source\\PSoC4/Accelero.h"