ARM GAS  C:\Users\Dylan\AppData\Local\Temp\ccGZdebx.s 			page 1


   1              		.cpu cortex-m0
   2              		.fpu softvfp
   3              		.eabi_attribute 20, 1
   4              		.eabi_attribute 21, 1
   5              		.eabi_attribute 23, 3
   6              		.eabi_attribute 24, 1
   7              		.eabi_attribute 25, 1
   8              		.eabi_attribute 26, 1
   9              		.eabi_attribute 30, 1
  10              		.eabi_attribute 34, 0
  11              		.eabi_attribute 18, 4
  12              		.code	16
  13              		.file	"zigbee.c"
  14              		.text
  15              	.Ltext0:
  16              		.cfi_sections	.debug_frame
  17              		.section	.text.zigbee_Init,"ax",%progbits
  18              		.align	2
  19              		.global	zigbee_Init
  20              		.code	16
  21              		.thumb_func
  22              		.type	zigbee_Init, %function
  23              	zigbee_Init:
  24              	.LFB1:
  25              		.file 1 ".\\Generated_Source\\PSoC4\\zigbee.c"
   1:.\Generated_Source\PSoC4/zigbee.c **** /*******************************************************************************
   2:.\Generated_Source\PSoC4/zigbee.c **** * File Name: zigbee.c
   3:.\Generated_Source\PSoC4/zigbee.c **** * Version 2.50
   4:.\Generated_Source\PSoC4/zigbee.c **** *
   5:.\Generated_Source\PSoC4/zigbee.c **** * Description:
   6:.\Generated_Source\PSoC4/zigbee.c **** *  This file provides all API functionality of the UART component
   7:.\Generated_Source\PSoC4/zigbee.c **** *
   8:.\Generated_Source\PSoC4/zigbee.c **** * Note:
   9:.\Generated_Source\PSoC4/zigbee.c **** *
  10:.\Generated_Source\PSoC4/zigbee.c **** ********************************************************************************
  11:.\Generated_Source\PSoC4/zigbee.c **** * Copyright 2008-2015, Cypress Semiconductor Corporation.  All rights reserved.
  12:.\Generated_Source\PSoC4/zigbee.c **** * You may use this file only in accordance with the license, terms, conditions,
  13:.\Generated_Source\PSoC4/zigbee.c **** * disclaimers, and limitations in the end user license agreement accompanying
  14:.\Generated_Source\PSoC4/zigbee.c **** * the software package with which this file was provided.
  15:.\Generated_Source\PSoC4/zigbee.c **** *******************************************************************************/
  16:.\Generated_Source\PSoC4/zigbee.c **** 
  17:.\Generated_Source\PSoC4/zigbee.c **** #include "zigbee.h"
  18:.\Generated_Source\PSoC4/zigbee.c **** #if (zigbee_INTERNAL_CLOCK_USED)
  19:.\Generated_Source\PSoC4/zigbee.c ****     #include "zigbee_IntClock.h"
  20:.\Generated_Source\PSoC4/zigbee.c **** #endif /* End zigbee_INTERNAL_CLOCK_USED */
  21:.\Generated_Source\PSoC4/zigbee.c **** 
  22:.\Generated_Source\PSoC4/zigbee.c **** 
  23:.\Generated_Source\PSoC4/zigbee.c **** /***************************************
  24:.\Generated_Source\PSoC4/zigbee.c **** * Global data allocation
  25:.\Generated_Source\PSoC4/zigbee.c **** ***************************************/
  26:.\Generated_Source\PSoC4/zigbee.c **** 
  27:.\Generated_Source\PSoC4/zigbee.c **** uint8 zigbee_initVar = 0u;
  28:.\Generated_Source\PSoC4/zigbee.c **** 
  29:.\Generated_Source\PSoC4/zigbee.c **** #if (zigbee_TX_INTERRUPT_ENABLED && zigbee_TX_ENABLED)
  30:.\Generated_Source\PSoC4/zigbee.c ****     volatile uint8 zigbee_txBuffer[zigbee_TX_BUFFER_SIZE];
  31:.\Generated_Source\PSoC4/zigbee.c ****     volatile uint8 zigbee_txBufferRead = 0u;
  32:.\Generated_Source\PSoC4/zigbee.c ****     uint8 zigbee_txBufferWrite = 0u;
ARM GAS  C:\Users\Dylan\AppData\Local\Temp\ccGZdebx.s 			page 2


  33:.\Generated_Source\PSoC4/zigbee.c **** #endif /* (zigbee_TX_INTERRUPT_ENABLED && zigbee_TX_ENABLED) */
  34:.\Generated_Source\PSoC4/zigbee.c **** 
  35:.\Generated_Source\PSoC4/zigbee.c **** #if (zigbee_RX_INTERRUPT_ENABLED && (zigbee_RX_ENABLED || zigbee_HD_ENABLED))
  36:.\Generated_Source\PSoC4/zigbee.c ****     uint8 zigbee_errorStatus = 0u;
  37:.\Generated_Source\PSoC4/zigbee.c ****     volatile uint8 zigbee_rxBuffer[zigbee_RX_BUFFER_SIZE];
  38:.\Generated_Source\PSoC4/zigbee.c ****     volatile uint8 zigbee_rxBufferRead  = 0u;
  39:.\Generated_Source\PSoC4/zigbee.c ****     volatile uint8 zigbee_rxBufferWrite = 0u;
  40:.\Generated_Source\PSoC4/zigbee.c ****     volatile uint8 zigbee_rxBufferLoopDetect = 0u;
  41:.\Generated_Source\PSoC4/zigbee.c ****     volatile uint8 zigbee_rxBufferOverflow   = 0u;
  42:.\Generated_Source\PSoC4/zigbee.c ****     #if (zigbee_RXHW_ADDRESS_ENABLED)
  43:.\Generated_Source\PSoC4/zigbee.c ****         volatile uint8 zigbee_rxAddressMode = zigbee_RX_ADDRESS_MODE;
  44:.\Generated_Source\PSoC4/zigbee.c ****         volatile uint8 zigbee_rxAddressDetected = 0u;
  45:.\Generated_Source\PSoC4/zigbee.c ****     #endif /* (zigbee_RXHW_ADDRESS_ENABLED) */
  46:.\Generated_Source\PSoC4/zigbee.c **** #endif /* (zigbee_RX_INTERRUPT_ENABLED && (zigbee_RX_ENABLED || zigbee_HD_ENABLED)) */
  47:.\Generated_Source\PSoC4/zigbee.c **** 
  48:.\Generated_Source\PSoC4/zigbee.c **** 
  49:.\Generated_Source\PSoC4/zigbee.c **** /*******************************************************************************
  50:.\Generated_Source\PSoC4/zigbee.c **** * Function Name: zigbee_Start
  51:.\Generated_Source\PSoC4/zigbee.c **** ********************************************************************************
  52:.\Generated_Source\PSoC4/zigbee.c **** *
  53:.\Generated_Source\PSoC4/zigbee.c **** * Summary:
  54:.\Generated_Source\PSoC4/zigbee.c **** *  This is the preferred method to begin component operation.
  55:.\Generated_Source\PSoC4/zigbee.c **** *  zigbee_Start() sets the initVar variable, calls the
  56:.\Generated_Source\PSoC4/zigbee.c **** *  zigbee_Init() function, and then calls the
  57:.\Generated_Source\PSoC4/zigbee.c **** *  zigbee_Enable() function.
  58:.\Generated_Source\PSoC4/zigbee.c **** *
  59:.\Generated_Source\PSoC4/zigbee.c **** * Parameters:
  60:.\Generated_Source\PSoC4/zigbee.c **** *  None.
  61:.\Generated_Source\PSoC4/zigbee.c **** *
  62:.\Generated_Source\PSoC4/zigbee.c **** * Return:
  63:.\Generated_Source\PSoC4/zigbee.c **** *  None.
  64:.\Generated_Source\PSoC4/zigbee.c **** *
  65:.\Generated_Source\PSoC4/zigbee.c **** * Global variables:
  66:.\Generated_Source\PSoC4/zigbee.c **** *  The zigbee_intiVar variable is used to indicate initial
  67:.\Generated_Source\PSoC4/zigbee.c **** *  configuration of this component. The variable is initialized to zero (0u)
  68:.\Generated_Source\PSoC4/zigbee.c **** *  and set to one (1u) the first time zigbee_Start() is called. This
  69:.\Generated_Source\PSoC4/zigbee.c **** *  allows for component initialization without re-initialization in all
  70:.\Generated_Source\PSoC4/zigbee.c **** *  subsequent calls to the zigbee_Start() routine.
  71:.\Generated_Source\PSoC4/zigbee.c **** *
  72:.\Generated_Source\PSoC4/zigbee.c **** * Reentrant:
  73:.\Generated_Source\PSoC4/zigbee.c **** *  No.
  74:.\Generated_Source\PSoC4/zigbee.c **** *
  75:.\Generated_Source\PSoC4/zigbee.c **** *******************************************************************************/
  76:.\Generated_Source\PSoC4/zigbee.c **** void zigbee_Start(void) 
  77:.\Generated_Source\PSoC4/zigbee.c **** {
  78:.\Generated_Source\PSoC4/zigbee.c ****     /* If not initialized then initialize all required hardware and software */
  79:.\Generated_Source\PSoC4/zigbee.c ****     if(zigbee_initVar == 0u)
  80:.\Generated_Source\PSoC4/zigbee.c ****     {
  81:.\Generated_Source\PSoC4/zigbee.c ****         zigbee_Init();
  82:.\Generated_Source\PSoC4/zigbee.c ****         zigbee_initVar = 1u;
  83:.\Generated_Source\PSoC4/zigbee.c ****     }
  84:.\Generated_Source\PSoC4/zigbee.c **** 
  85:.\Generated_Source\PSoC4/zigbee.c ****     zigbee_Enable();
  86:.\Generated_Source\PSoC4/zigbee.c **** }
  87:.\Generated_Source\PSoC4/zigbee.c **** 
  88:.\Generated_Source\PSoC4/zigbee.c **** 
  89:.\Generated_Source\PSoC4/zigbee.c **** /*******************************************************************************
ARM GAS  C:\Users\Dylan\AppData\Local\Temp\ccGZdebx.s 			page 3


  90:.\Generated_Source\PSoC4/zigbee.c **** * Function Name: zigbee_Init
  91:.\Generated_Source\PSoC4/zigbee.c **** ********************************************************************************
  92:.\Generated_Source\PSoC4/zigbee.c **** *
  93:.\Generated_Source\PSoC4/zigbee.c **** * Summary:
  94:.\Generated_Source\PSoC4/zigbee.c **** *  Initializes or restores the component according to the customizer Configure
  95:.\Generated_Source\PSoC4/zigbee.c **** *  dialog settings. It is not necessary to call zigbee_Init() because
  96:.\Generated_Source\PSoC4/zigbee.c **** *  the zigbee_Start() API calls this function and is the preferred
  97:.\Generated_Source\PSoC4/zigbee.c **** *  method to begin component operation.
  98:.\Generated_Source\PSoC4/zigbee.c **** *
  99:.\Generated_Source\PSoC4/zigbee.c **** * Parameters:
 100:.\Generated_Source\PSoC4/zigbee.c **** *  None.
 101:.\Generated_Source\PSoC4/zigbee.c **** *
 102:.\Generated_Source\PSoC4/zigbee.c **** * Return:
 103:.\Generated_Source\PSoC4/zigbee.c **** *  None.
 104:.\Generated_Source\PSoC4/zigbee.c **** *
 105:.\Generated_Source\PSoC4/zigbee.c **** *******************************************************************************/
 106:.\Generated_Source\PSoC4/zigbee.c **** void zigbee_Init(void) 
 107:.\Generated_Source\PSoC4/zigbee.c **** {
  26              		.loc 1 107 0
  27              		.cfi_startproc
 108:.\Generated_Source\PSoC4/zigbee.c ****     #if(zigbee_RX_ENABLED || zigbee_HD_ENABLED)
 109:.\Generated_Source\PSoC4/zigbee.c **** 
 110:.\Generated_Source\PSoC4/zigbee.c ****         #if (zigbee_RX_INTERRUPT_ENABLED)
 111:.\Generated_Source\PSoC4/zigbee.c ****             /* Set RX interrupt vector and priority */
 112:.\Generated_Source\PSoC4/zigbee.c ****             (void) CyIntSetVector(zigbee_RX_VECT_NUM, &zigbee_RXISR);
 113:.\Generated_Source\PSoC4/zigbee.c ****             CyIntSetPriority(zigbee_RX_VECT_NUM, zigbee_RX_PRIOR_NUM);
 114:.\Generated_Source\PSoC4/zigbee.c ****             zigbee_errorStatus = 0u;
 115:.\Generated_Source\PSoC4/zigbee.c ****         #endif /* (zigbee_RX_INTERRUPT_ENABLED) */
 116:.\Generated_Source\PSoC4/zigbee.c **** 
 117:.\Generated_Source\PSoC4/zigbee.c ****         #if (zigbee_RXHW_ADDRESS_ENABLED)
 118:.\Generated_Source\PSoC4/zigbee.c ****             zigbee_SetRxAddressMode(zigbee_RX_ADDRESS_MODE);
 119:.\Generated_Source\PSoC4/zigbee.c ****             zigbee_SetRxAddress1(zigbee_RX_HW_ADDRESS1);
 120:.\Generated_Source\PSoC4/zigbee.c ****             zigbee_SetRxAddress2(zigbee_RX_HW_ADDRESS2);
 121:.\Generated_Source\PSoC4/zigbee.c ****         #endif /* End zigbee_RXHW_ADDRESS_ENABLED */
 122:.\Generated_Source\PSoC4/zigbee.c **** 
 123:.\Generated_Source\PSoC4/zigbee.c ****         /* Init Count7 period */
 124:.\Generated_Source\PSoC4/zigbee.c ****         zigbee_RXBITCTR_PERIOD_REG = zigbee_RXBITCTR_INIT;
 125:.\Generated_Source\PSoC4/zigbee.c ****         /* Configure the Initial RX interrupt mask */
 126:.\Generated_Source\PSoC4/zigbee.c ****         zigbee_RXSTATUS_MASK_REG  = zigbee_INIT_RX_INTERRUPTS_MASK;
 127:.\Generated_Source\PSoC4/zigbee.c ****     #endif /* End zigbee_RX_ENABLED || zigbee_HD_ENABLED*/
 128:.\Generated_Source\PSoC4/zigbee.c **** 
 129:.\Generated_Source\PSoC4/zigbee.c ****     #if(zigbee_TX_ENABLED)
 130:.\Generated_Source\PSoC4/zigbee.c ****         #if (zigbee_TX_INTERRUPT_ENABLED)
 131:.\Generated_Source\PSoC4/zigbee.c ****             /* Set TX interrupt vector and priority */
 132:.\Generated_Source\PSoC4/zigbee.c ****             (void) CyIntSetVector(zigbee_TX_VECT_NUM, &zigbee_TXISR);
 133:.\Generated_Source\PSoC4/zigbee.c ****             CyIntSetPriority(zigbee_TX_VECT_NUM, zigbee_TX_PRIOR_NUM);
 134:.\Generated_Source\PSoC4/zigbee.c ****         #endif /* (zigbee_TX_INTERRUPT_ENABLED) */
 135:.\Generated_Source\PSoC4/zigbee.c **** 
 136:.\Generated_Source\PSoC4/zigbee.c ****         /* Write Counter Value for TX Bit Clk Generator*/
 137:.\Generated_Source\PSoC4/zigbee.c ****         #if (zigbee_TXCLKGEN_DP)
 138:.\Generated_Source\PSoC4/zigbee.c ****             zigbee_TXBITCLKGEN_CTR_REG = zigbee_BIT_CENTER;
  28              		.loc 1 138 0
  29 0000 0622     		mov	r2, #6
  30 0002 044B     		ldr	r3, .L2
  31 0004 1A70     		strb	r2, [r3]
 139:.\Generated_Source\PSoC4/zigbee.c ****             zigbee_TXBITCLKTX_COMPLETE_REG = ((zigbee_NUMBER_OF_DATA_BITS +
  32              		.loc 1 139 0
ARM GAS  C:\Users\Dylan\AppData\Local\Temp\ccGZdebx.s 			page 4


  33 0006 4132     		add	r2, r2, #65
  34 0008 034B     		ldr	r3, .L2+4
  35 000a 1A70     		strb	r2, [r3]
 140:.\Generated_Source\PSoC4/zigbee.c ****                         zigbee_NUMBER_OF_START_BIT) * zigbee_OVER_SAMPLE_COUNT) - 1u;
 141:.\Generated_Source\PSoC4/zigbee.c ****         #else
 142:.\Generated_Source\PSoC4/zigbee.c ****             zigbee_TXBITCTR_PERIOD_REG = ((zigbee_NUMBER_OF_DATA_BITS +
 143:.\Generated_Source\PSoC4/zigbee.c ****                         zigbee_NUMBER_OF_START_BIT) * zigbee_OVER_SAMPLE_8) - 1u;
 144:.\Generated_Source\PSoC4/zigbee.c ****         #endif /* End zigbee_TXCLKGEN_DP */
 145:.\Generated_Source\PSoC4/zigbee.c **** 
 146:.\Generated_Source\PSoC4/zigbee.c ****         /* Configure the Initial TX interrupt mask */
 147:.\Generated_Source\PSoC4/zigbee.c ****         #if (zigbee_TX_INTERRUPT_ENABLED)
 148:.\Generated_Source\PSoC4/zigbee.c ****             zigbee_TXSTATUS_MASK_REG = zigbee_TX_STS_FIFO_EMPTY;
 149:.\Generated_Source\PSoC4/zigbee.c ****         #else
 150:.\Generated_Source\PSoC4/zigbee.c ****             zigbee_TXSTATUS_MASK_REG = zigbee_INIT_TX_INTERRUPTS_MASK;
  36              		.loc 1 150 0
  37 000c 0022     		mov	r2, #0
  38 000e 034B     		ldr	r3, .L2+8
  39 0010 1A70     		strb	r2, [r3]
 151:.\Generated_Source\PSoC4/zigbee.c ****         #endif /*End zigbee_TX_INTERRUPT_ENABLED*/
 152:.\Generated_Source\PSoC4/zigbee.c **** 
 153:.\Generated_Source\PSoC4/zigbee.c ****     #endif /* End zigbee_TX_ENABLED */
 154:.\Generated_Source\PSoC4/zigbee.c **** 
 155:.\Generated_Source\PSoC4/zigbee.c ****     #if(zigbee_PARITY_TYPE_SW)  /* Write Parity to Control Register */
 156:.\Generated_Source\PSoC4/zigbee.c ****         zigbee_WriteControlRegister( \
 157:.\Generated_Source\PSoC4/zigbee.c ****             (zigbee_ReadControlRegister() & (uint8)~zigbee_CTRL_PARITY_TYPE_MASK) | \
 158:.\Generated_Source\PSoC4/zigbee.c ****             (uint8)(zigbee_PARITY_TYPE << zigbee_CTRL_PARITY_TYPE0_SHIFT) );
 159:.\Generated_Source\PSoC4/zigbee.c ****     #endif /* End zigbee_PARITY_TYPE_SW */
 160:.\Generated_Source\PSoC4/zigbee.c **** }
  40              		.loc 1 160 0
  41              		@ sp needed
  42 0012 7047     		bx	lr
  43              	.L3:
  44              		.align	2
  45              	.L2:
  46 0014 22000F40 		.word	1074724898
  47 0018 32000F40 		.word	1074724914
  48 001c 83000F40 		.word	1074724995
  49              		.cfi_endproc
  50              	.LFE1:
  51              		.size	zigbee_Init, .-zigbee_Init
  52              		.section	.text.zigbee_Enable,"ax",%progbits
  53              		.align	2
  54              		.global	zigbee_Enable
  55              		.code	16
  56              		.thumb_func
  57              		.type	zigbee_Enable, %function
  58              	zigbee_Enable:
  59              	.LFB2:
 161:.\Generated_Source\PSoC4/zigbee.c **** 
 162:.\Generated_Source\PSoC4/zigbee.c **** 
 163:.\Generated_Source\PSoC4/zigbee.c **** /*******************************************************************************
 164:.\Generated_Source\PSoC4/zigbee.c **** * Function Name: zigbee_Enable
 165:.\Generated_Source\PSoC4/zigbee.c **** ********************************************************************************
 166:.\Generated_Source\PSoC4/zigbee.c **** *
 167:.\Generated_Source\PSoC4/zigbee.c **** * Summary:
 168:.\Generated_Source\PSoC4/zigbee.c **** *  Activates the hardware and begins component operation. It is not necessary
 169:.\Generated_Source\PSoC4/zigbee.c **** *  to call zigbee_Enable() because the zigbee_Start() API
ARM GAS  C:\Users\Dylan\AppData\Local\Temp\ccGZdebx.s 			page 5


 170:.\Generated_Source\PSoC4/zigbee.c **** *  calls this function, which is the preferred method to begin component
 171:.\Generated_Source\PSoC4/zigbee.c **** *  operation.
 172:.\Generated_Source\PSoC4/zigbee.c **** 
 173:.\Generated_Source\PSoC4/zigbee.c **** * Parameters:
 174:.\Generated_Source\PSoC4/zigbee.c **** *  None.
 175:.\Generated_Source\PSoC4/zigbee.c **** *
 176:.\Generated_Source\PSoC4/zigbee.c **** * Return:
 177:.\Generated_Source\PSoC4/zigbee.c **** *  None.
 178:.\Generated_Source\PSoC4/zigbee.c **** *
 179:.\Generated_Source\PSoC4/zigbee.c **** * Global Variables:
 180:.\Generated_Source\PSoC4/zigbee.c **** *  zigbee_rxAddressDetected - set to initial state (0).
 181:.\Generated_Source\PSoC4/zigbee.c **** *
 182:.\Generated_Source\PSoC4/zigbee.c **** *******************************************************************************/
 183:.\Generated_Source\PSoC4/zigbee.c **** void zigbee_Enable(void) 
 184:.\Generated_Source\PSoC4/zigbee.c **** {
  60              		.loc 1 184 0
  61              		.cfi_startproc
  62 0000 10B5     		push	{r4, lr}
  63              		.cfi_def_cfa_offset 8
  64              		.cfi_offset 4, -8
  65              		.cfi_offset 14, -4
 185:.\Generated_Source\PSoC4/zigbee.c ****     uint8 enableInterrupts;
 186:.\Generated_Source\PSoC4/zigbee.c ****     enableInterrupts = CyEnterCriticalSection();
  66              		.loc 1 186 0
  67 0002 FFF7FEFF 		bl	CyEnterCriticalSection
  68              	.LVL0:
  69 0006 041C     		mov	r4, r0
  70              	.LVL1:
 187:.\Generated_Source\PSoC4/zigbee.c **** 
 188:.\Generated_Source\PSoC4/zigbee.c ****     #if (zigbee_RX_ENABLED || zigbee_HD_ENABLED)
 189:.\Generated_Source\PSoC4/zigbee.c ****         /* RX Counter (Count7) Enable */
 190:.\Generated_Source\PSoC4/zigbee.c ****         zigbee_RXBITCTR_CONTROL_REG |= zigbee_CNTR_ENABLE;
 191:.\Generated_Source\PSoC4/zigbee.c **** 
 192:.\Generated_Source\PSoC4/zigbee.c ****         /* Enable the RX Interrupt */
 193:.\Generated_Source\PSoC4/zigbee.c ****         zigbee_RXSTATUS_ACTL_REG  |= zigbee_INT_ENABLE;
 194:.\Generated_Source\PSoC4/zigbee.c **** 
 195:.\Generated_Source\PSoC4/zigbee.c ****         #if (zigbee_RX_INTERRUPT_ENABLED)
 196:.\Generated_Source\PSoC4/zigbee.c ****             zigbee_EnableRxInt();
 197:.\Generated_Source\PSoC4/zigbee.c **** 
 198:.\Generated_Source\PSoC4/zigbee.c ****             #if (zigbee_RXHW_ADDRESS_ENABLED)
 199:.\Generated_Source\PSoC4/zigbee.c ****                 zigbee_rxAddressDetected = 0u;
 200:.\Generated_Source\PSoC4/zigbee.c ****             #endif /* (zigbee_RXHW_ADDRESS_ENABLED) */
 201:.\Generated_Source\PSoC4/zigbee.c ****         #endif /* (zigbee_RX_INTERRUPT_ENABLED) */
 202:.\Generated_Source\PSoC4/zigbee.c ****     #endif /* (zigbee_RX_ENABLED || zigbee_HD_ENABLED) */
 203:.\Generated_Source\PSoC4/zigbee.c **** 
 204:.\Generated_Source\PSoC4/zigbee.c ****     #if(zigbee_TX_ENABLED)
 205:.\Generated_Source\PSoC4/zigbee.c ****         /* TX Counter (DP/Count7) Enable */
 206:.\Generated_Source\PSoC4/zigbee.c ****         #if(!zigbee_TXCLKGEN_DP)
 207:.\Generated_Source\PSoC4/zigbee.c ****             zigbee_TXBITCTR_CONTROL_REG |= zigbee_CNTR_ENABLE;
 208:.\Generated_Source\PSoC4/zigbee.c ****         #endif /* End zigbee_TXCLKGEN_DP */
 209:.\Generated_Source\PSoC4/zigbee.c **** 
 210:.\Generated_Source\PSoC4/zigbee.c ****         /* Enable the TX Interrupt */
 211:.\Generated_Source\PSoC4/zigbee.c ****         zigbee_TXSTATUS_ACTL_REG |= zigbee_INT_ENABLE;
  71              		.loc 1 211 0
  72 0008 054A     		ldr	r2, .L5
  73 000a 1178     		ldrb	r1, [r2]
  74 000c 1023     		mov	r3, #16
ARM GAS  C:\Users\Dylan\AppData\Local\Temp\ccGZdebx.s 			page 6


  75 000e 0B43     		orr	r3, r1
  76 0010 1370     		strb	r3, [r2]
 212:.\Generated_Source\PSoC4/zigbee.c ****         #if (zigbee_TX_INTERRUPT_ENABLED)
 213:.\Generated_Source\PSoC4/zigbee.c ****             zigbee_ClearPendingTxInt(); /* Clear history of TX_NOT_EMPTY */
 214:.\Generated_Source\PSoC4/zigbee.c ****             zigbee_EnableTxInt();
 215:.\Generated_Source\PSoC4/zigbee.c ****         #endif /* (zigbee_TX_INTERRUPT_ENABLED) */
 216:.\Generated_Source\PSoC4/zigbee.c ****      #endif /* (zigbee_TX_INTERRUPT_ENABLED) */
 217:.\Generated_Source\PSoC4/zigbee.c **** 
 218:.\Generated_Source\PSoC4/zigbee.c ****     #if (zigbee_INTERNAL_CLOCK_USED)
 219:.\Generated_Source\PSoC4/zigbee.c ****         zigbee_IntClock_Start();  /* Enable the clock */
  77              		.loc 1 219 0
  78 0012 FFF7FEFF 		bl	zigbee_IntClock_Start
  79              	.LVL2:
 220:.\Generated_Source\PSoC4/zigbee.c ****     #endif /* (zigbee_INTERNAL_CLOCK_USED) */
 221:.\Generated_Source\PSoC4/zigbee.c **** 
 222:.\Generated_Source\PSoC4/zigbee.c ****     CyExitCriticalSection(enableInterrupts);
  80              		.loc 1 222 0
  81 0016 201C     		mov	r0, r4
  82 0018 FFF7FEFF 		bl	CyExitCriticalSection
  83              	.LVL3:
 223:.\Generated_Source\PSoC4/zigbee.c **** }
  84              		.loc 1 223 0
  85              		@ sp needed
  86              	.LVL4:
  87 001c 10BD     		pop	{r4, pc}
  88              	.L6:
  89 001e C046     		.align	2
  90              	.L5:
  91 0020 93000F40 		.word	1074725011
  92              		.cfi_endproc
  93              	.LFE2:
  94              		.size	zigbee_Enable, .-zigbee_Enable
  95              		.section	.text.zigbee_Start,"ax",%progbits
  96              		.align	2
  97              		.global	zigbee_Start
  98              		.code	16
  99              		.thumb_func
 100              		.type	zigbee_Start, %function
 101              	zigbee_Start:
 102              	.LFB0:
  77:.\Generated_Source\PSoC4/zigbee.c ****     /* If not initialized then initialize all required hardware and software */
 103              		.loc 1 77 0
 104              		.cfi_startproc
 105 0000 08B5     		push	{r3, lr}
 106              		.cfi_def_cfa_offset 8
 107              		.cfi_offset 3, -8
 108              		.cfi_offset 14, -4
  79:.\Generated_Source\PSoC4/zigbee.c ****     {
 109              		.loc 1 79 0
 110 0002 064B     		ldr	r3, .L9
 111 0004 1B78     		ldrb	r3, [r3]
 112 0006 002B     		cmp	r3, #0
 113 0008 04D1     		bne	.L8
  81:.\Generated_Source\PSoC4/zigbee.c ****         zigbee_initVar = 1u;
 114              		.loc 1 81 0
 115 000a FFF7FEFF 		bl	zigbee_Init
 116              	.LVL5:
ARM GAS  C:\Users\Dylan\AppData\Local\Temp\ccGZdebx.s 			page 7


  82:.\Generated_Source\PSoC4/zigbee.c ****     }
 117              		.loc 1 82 0
 118 000e 0122     		mov	r2, #1
 119 0010 024B     		ldr	r3, .L9
 120 0012 1A70     		strb	r2, [r3]
 121              	.L8:
  85:.\Generated_Source\PSoC4/zigbee.c **** }
 122              		.loc 1 85 0
 123 0014 FFF7FEFF 		bl	zigbee_Enable
 124              	.LVL6:
  86:.\Generated_Source\PSoC4/zigbee.c **** 
 125              		.loc 1 86 0
 126              		@ sp needed
 127 0018 08BD     		pop	{r3, pc}
 128              	.L10:
 129 001a C046     		.align	2
 130              	.L9:
 131 001c 00000000 		.word	.LANCHOR0
 132              		.cfi_endproc
 133              	.LFE0:
 134              		.size	zigbee_Start, .-zigbee_Start
 135              		.section	.text.zigbee_Stop,"ax",%progbits
 136              		.align	2
 137              		.global	zigbee_Stop
 138              		.code	16
 139              		.thumb_func
 140              		.type	zigbee_Stop, %function
 141              	zigbee_Stop:
 142              	.LFB3:
 224:.\Generated_Source\PSoC4/zigbee.c **** 
 225:.\Generated_Source\PSoC4/zigbee.c **** 
 226:.\Generated_Source\PSoC4/zigbee.c **** /*******************************************************************************
 227:.\Generated_Source\PSoC4/zigbee.c **** * Function Name: zigbee_Stop
 228:.\Generated_Source\PSoC4/zigbee.c **** ********************************************************************************
 229:.\Generated_Source\PSoC4/zigbee.c **** *
 230:.\Generated_Source\PSoC4/zigbee.c **** * Summary:
 231:.\Generated_Source\PSoC4/zigbee.c **** *  Disables the UART operation.
 232:.\Generated_Source\PSoC4/zigbee.c **** *
 233:.\Generated_Source\PSoC4/zigbee.c **** * Parameters:
 234:.\Generated_Source\PSoC4/zigbee.c **** *  None.
 235:.\Generated_Source\PSoC4/zigbee.c **** *
 236:.\Generated_Source\PSoC4/zigbee.c **** * Return:
 237:.\Generated_Source\PSoC4/zigbee.c **** *  None.
 238:.\Generated_Source\PSoC4/zigbee.c **** *
 239:.\Generated_Source\PSoC4/zigbee.c **** *******************************************************************************/
 240:.\Generated_Source\PSoC4/zigbee.c **** void zigbee_Stop(void) 
 241:.\Generated_Source\PSoC4/zigbee.c **** {
 143              		.loc 1 241 0
 144              		.cfi_startproc
 145 0000 10B5     		push	{r4, lr}
 146              		.cfi_def_cfa_offset 8
 147              		.cfi_offset 4, -8
 148              		.cfi_offset 14, -4
 242:.\Generated_Source\PSoC4/zigbee.c ****     uint8 enableInterrupts;
 243:.\Generated_Source\PSoC4/zigbee.c ****     enableInterrupts = CyEnterCriticalSection();
 149              		.loc 1 243 0
 150 0002 FFF7FEFF 		bl	CyEnterCriticalSection
ARM GAS  C:\Users\Dylan\AppData\Local\Temp\ccGZdebx.s 			page 8


 151              	.LVL7:
 152 0006 041C     		mov	r4, r0
 153              	.LVL8:
 244:.\Generated_Source\PSoC4/zigbee.c **** 
 245:.\Generated_Source\PSoC4/zigbee.c ****     /* Write Bit Counter Disable */
 246:.\Generated_Source\PSoC4/zigbee.c ****     #if (zigbee_RX_ENABLED || zigbee_HD_ENABLED)
 247:.\Generated_Source\PSoC4/zigbee.c ****         zigbee_RXBITCTR_CONTROL_REG &= (uint8) ~zigbee_CNTR_ENABLE;
 248:.\Generated_Source\PSoC4/zigbee.c ****     #endif /* (zigbee_RX_ENABLED || zigbee_HD_ENABLED) */
 249:.\Generated_Source\PSoC4/zigbee.c **** 
 250:.\Generated_Source\PSoC4/zigbee.c ****     #if (zigbee_TX_ENABLED)
 251:.\Generated_Source\PSoC4/zigbee.c ****         #if(!zigbee_TXCLKGEN_DP)
 252:.\Generated_Source\PSoC4/zigbee.c ****             zigbee_TXBITCTR_CONTROL_REG &= (uint8) ~zigbee_CNTR_ENABLE;
 253:.\Generated_Source\PSoC4/zigbee.c ****         #endif /* (!zigbee_TXCLKGEN_DP) */
 254:.\Generated_Source\PSoC4/zigbee.c ****     #endif /* (zigbee_TX_ENABLED) */
 255:.\Generated_Source\PSoC4/zigbee.c **** 
 256:.\Generated_Source\PSoC4/zigbee.c ****     #if (zigbee_INTERNAL_CLOCK_USED)
 257:.\Generated_Source\PSoC4/zigbee.c ****         zigbee_IntClock_Stop();   /* Disable the clock */
 154              		.loc 1 257 0
 155 0008 FFF7FEFF 		bl	zigbee_IntClock_Stop
 156              	.LVL9:
 258:.\Generated_Source\PSoC4/zigbee.c ****     #endif /* (zigbee_INTERNAL_CLOCK_USED) */
 259:.\Generated_Source\PSoC4/zigbee.c **** 
 260:.\Generated_Source\PSoC4/zigbee.c ****     /* Disable internal interrupt component */
 261:.\Generated_Source\PSoC4/zigbee.c ****     #if (zigbee_RX_ENABLED || zigbee_HD_ENABLED)
 262:.\Generated_Source\PSoC4/zigbee.c ****         zigbee_RXSTATUS_ACTL_REG  &= (uint8) ~zigbee_INT_ENABLE;
 263:.\Generated_Source\PSoC4/zigbee.c **** 
 264:.\Generated_Source\PSoC4/zigbee.c ****         #if (zigbee_RX_INTERRUPT_ENABLED)
 265:.\Generated_Source\PSoC4/zigbee.c ****             zigbee_DisableRxInt();
 266:.\Generated_Source\PSoC4/zigbee.c ****         #endif /* (zigbee_RX_INTERRUPT_ENABLED) */
 267:.\Generated_Source\PSoC4/zigbee.c ****     #endif /* (zigbee_RX_ENABLED || zigbee_HD_ENABLED) */
 268:.\Generated_Source\PSoC4/zigbee.c **** 
 269:.\Generated_Source\PSoC4/zigbee.c ****     #if (zigbee_TX_ENABLED)
 270:.\Generated_Source\PSoC4/zigbee.c ****         zigbee_TXSTATUS_ACTL_REG &= (uint8) ~zigbee_INT_ENABLE;
 157              		.loc 1 270 0
 158 000c 044A     		ldr	r2, .L12
 159 000e 1378     		ldrb	r3, [r2]
 160 0010 1021     		mov	r1, #16
 161 0012 8B43     		bic	r3, r1
 162 0014 1370     		strb	r3, [r2]
 271:.\Generated_Source\PSoC4/zigbee.c **** 
 272:.\Generated_Source\PSoC4/zigbee.c ****         #if (zigbee_TX_INTERRUPT_ENABLED)
 273:.\Generated_Source\PSoC4/zigbee.c ****             zigbee_DisableTxInt();
 274:.\Generated_Source\PSoC4/zigbee.c ****         #endif /* (zigbee_TX_INTERRUPT_ENABLED) */
 275:.\Generated_Source\PSoC4/zigbee.c ****     #endif /* (zigbee_TX_ENABLED) */
 276:.\Generated_Source\PSoC4/zigbee.c **** 
 277:.\Generated_Source\PSoC4/zigbee.c ****     CyExitCriticalSection(enableInterrupts);
 163              		.loc 1 277 0
 164 0016 201C     		mov	r0, r4
 165 0018 FFF7FEFF 		bl	CyExitCriticalSection
 166              	.LVL10:
 278:.\Generated_Source\PSoC4/zigbee.c **** }
 167              		.loc 1 278 0
 168              		@ sp needed
 169              	.LVL11:
 170 001c 10BD     		pop	{r4, pc}
 171              	.L13:
 172 001e C046     		.align	2
ARM GAS  C:\Users\Dylan\AppData\Local\Temp\ccGZdebx.s 			page 9


 173              	.L12:
 174 0020 93000F40 		.word	1074725011
 175              		.cfi_endproc
 176              	.LFE3:
 177              		.size	zigbee_Stop, .-zigbee_Stop
 178              		.section	.text.zigbee_ReadControlRegister,"ax",%progbits
 179              		.align	2
 180              		.global	zigbee_ReadControlRegister
 181              		.code	16
 182              		.thumb_func
 183              		.type	zigbee_ReadControlRegister, %function
 184              	zigbee_ReadControlRegister:
 185              	.LFB4:
 279:.\Generated_Source\PSoC4/zigbee.c **** 
 280:.\Generated_Source\PSoC4/zigbee.c **** 
 281:.\Generated_Source\PSoC4/zigbee.c **** /*******************************************************************************
 282:.\Generated_Source\PSoC4/zigbee.c **** * Function Name: zigbee_ReadControlRegister
 283:.\Generated_Source\PSoC4/zigbee.c **** ********************************************************************************
 284:.\Generated_Source\PSoC4/zigbee.c **** *
 285:.\Generated_Source\PSoC4/zigbee.c **** * Summary:
 286:.\Generated_Source\PSoC4/zigbee.c **** *  Returns the current value of the control register.
 287:.\Generated_Source\PSoC4/zigbee.c **** *
 288:.\Generated_Source\PSoC4/zigbee.c **** * Parameters:
 289:.\Generated_Source\PSoC4/zigbee.c **** *  None.
 290:.\Generated_Source\PSoC4/zigbee.c **** *
 291:.\Generated_Source\PSoC4/zigbee.c **** * Return:
 292:.\Generated_Source\PSoC4/zigbee.c **** *  Contents of the control register.
 293:.\Generated_Source\PSoC4/zigbee.c **** *
 294:.\Generated_Source\PSoC4/zigbee.c **** *******************************************************************************/
 295:.\Generated_Source\PSoC4/zigbee.c **** uint8 zigbee_ReadControlRegister(void) 
 296:.\Generated_Source\PSoC4/zigbee.c **** {
 186              		.loc 1 296 0
 187              		.cfi_startproc
 297:.\Generated_Source\PSoC4/zigbee.c ****     #if (zigbee_CONTROL_REG_REMOVED)
 298:.\Generated_Source\PSoC4/zigbee.c ****         return(0u);
 299:.\Generated_Source\PSoC4/zigbee.c ****     #else
 300:.\Generated_Source\PSoC4/zigbee.c ****         return(zigbee_CONTROL_REG);
 301:.\Generated_Source\PSoC4/zigbee.c ****     #endif /* (zigbee_CONTROL_REG_REMOVED) */
 302:.\Generated_Source\PSoC4/zigbee.c **** }
 188              		.loc 1 302 0
 189 0000 0020     		mov	r0, #0
 190              		@ sp needed
 191 0002 7047     		bx	lr
 192              		.cfi_endproc
 193              	.LFE4:
 194              		.size	zigbee_ReadControlRegister, .-zigbee_ReadControlRegister
 195              		.section	.text.zigbee_WriteControlRegister,"ax",%progbits
 196              		.align	2
 197              		.global	zigbee_WriteControlRegister
 198              		.code	16
 199              		.thumb_func
 200              		.type	zigbee_WriteControlRegister, %function
 201              	zigbee_WriteControlRegister:
 202              	.LFB5:
 303:.\Generated_Source\PSoC4/zigbee.c **** 
 304:.\Generated_Source\PSoC4/zigbee.c **** 
 305:.\Generated_Source\PSoC4/zigbee.c **** /*******************************************************************************
ARM GAS  C:\Users\Dylan\AppData\Local\Temp\ccGZdebx.s 			page 10


 306:.\Generated_Source\PSoC4/zigbee.c **** * Function Name: zigbee_WriteControlRegister
 307:.\Generated_Source\PSoC4/zigbee.c **** ********************************************************************************
 308:.\Generated_Source\PSoC4/zigbee.c **** *
 309:.\Generated_Source\PSoC4/zigbee.c **** * Summary:
 310:.\Generated_Source\PSoC4/zigbee.c **** *  Writes an 8-bit value into the control register
 311:.\Generated_Source\PSoC4/zigbee.c **** *
 312:.\Generated_Source\PSoC4/zigbee.c **** * Parameters:
 313:.\Generated_Source\PSoC4/zigbee.c **** *  control:  control register value
 314:.\Generated_Source\PSoC4/zigbee.c **** *
 315:.\Generated_Source\PSoC4/zigbee.c **** * Return:
 316:.\Generated_Source\PSoC4/zigbee.c **** *  None.
 317:.\Generated_Source\PSoC4/zigbee.c **** *
 318:.\Generated_Source\PSoC4/zigbee.c **** *******************************************************************************/
 319:.\Generated_Source\PSoC4/zigbee.c **** void  zigbee_WriteControlRegister(uint8 control) 
 320:.\Generated_Source\PSoC4/zigbee.c **** {
 203              		.loc 1 320 0
 204              		.cfi_startproc
 205              	.LVL12:
 321:.\Generated_Source\PSoC4/zigbee.c ****     #if (zigbee_CONTROL_REG_REMOVED)
 322:.\Generated_Source\PSoC4/zigbee.c ****         if(0u != control)
 323:.\Generated_Source\PSoC4/zigbee.c ****         {
 324:.\Generated_Source\PSoC4/zigbee.c ****             /* Suppress compiler warning */
 325:.\Generated_Source\PSoC4/zigbee.c ****         }
 326:.\Generated_Source\PSoC4/zigbee.c ****     #else
 327:.\Generated_Source\PSoC4/zigbee.c ****        zigbee_CONTROL_REG = control;
 328:.\Generated_Source\PSoC4/zigbee.c ****     #endif /* (zigbee_CONTROL_REG_REMOVED) */
 329:.\Generated_Source\PSoC4/zigbee.c **** }
 206              		.loc 1 329 0
 207              		@ sp needed
 208 0000 7047     		bx	lr
 209              		.cfi_endproc
 210              	.LFE5:
 211              		.size	zigbee_WriteControlRegister, .-zigbee_WriteControlRegister
 212 0002 C046     		.section	.text.zigbee_SetTxInterruptMode,"ax",%progbits
 213              		.align	2
 214              		.global	zigbee_SetTxInterruptMode
 215              		.code	16
 216              		.thumb_func
 217              		.type	zigbee_SetTxInterruptMode, %function
 218              	zigbee_SetTxInterruptMode:
 219              	.LFB6:
 330:.\Generated_Source\PSoC4/zigbee.c **** 
 331:.\Generated_Source\PSoC4/zigbee.c **** 
 332:.\Generated_Source\PSoC4/zigbee.c **** #if(zigbee_RX_ENABLED || zigbee_HD_ENABLED)
 333:.\Generated_Source\PSoC4/zigbee.c ****     /*******************************************************************************
 334:.\Generated_Source\PSoC4/zigbee.c ****     * Function Name: zigbee_SetRxInterruptMode
 335:.\Generated_Source\PSoC4/zigbee.c ****     ********************************************************************************
 336:.\Generated_Source\PSoC4/zigbee.c ****     *
 337:.\Generated_Source\PSoC4/zigbee.c ****     * Summary:
 338:.\Generated_Source\PSoC4/zigbee.c ****     *  Configures the RX interrupt sources enabled.
 339:.\Generated_Source\PSoC4/zigbee.c ****     *
 340:.\Generated_Source\PSoC4/zigbee.c ****     * Parameters:
 341:.\Generated_Source\PSoC4/zigbee.c ****     *  IntSrc:  Bit field containing the RX interrupts to enable. Based on the 
 342:.\Generated_Source\PSoC4/zigbee.c ****     *  bit-field arrangement of the status register. This value must be a 
 343:.\Generated_Source\PSoC4/zigbee.c ****     *  combination of status register bit-masks shown below:
 344:.\Generated_Source\PSoC4/zigbee.c ****     *      zigbee_RX_STS_FIFO_NOTEMPTY    Interrupt on byte received.
 345:.\Generated_Source\PSoC4/zigbee.c ****     *      zigbee_RX_STS_PAR_ERROR        Interrupt on parity error.
ARM GAS  C:\Users\Dylan\AppData\Local\Temp\ccGZdebx.s 			page 11


 346:.\Generated_Source\PSoC4/zigbee.c ****     *      zigbee_RX_STS_STOP_ERROR       Interrupt on stop error.
 347:.\Generated_Source\PSoC4/zigbee.c ****     *      zigbee_RX_STS_BREAK            Interrupt on break.
 348:.\Generated_Source\PSoC4/zigbee.c ****     *      zigbee_RX_STS_OVERRUN          Interrupt on overrun error.
 349:.\Generated_Source\PSoC4/zigbee.c ****     *      zigbee_RX_STS_ADDR_MATCH       Interrupt on address match.
 350:.\Generated_Source\PSoC4/zigbee.c ****     *      zigbee_RX_STS_MRKSPC           Interrupt on address detect.
 351:.\Generated_Source\PSoC4/zigbee.c ****     *
 352:.\Generated_Source\PSoC4/zigbee.c ****     * Return:
 353:.\Generated_Source\PSoC4/zigbee.c ****     *  None.
 354:.\Generated_Source\PSoC4/zigbee.c ****     *
 355:.\Generated_Source\PSoC4/zigbee.c ****     * Theory:
 356:.\Generated_Source\PSoC4/zigbee.c ****     *  Enables the output of specific status bits to the interrupt controller
 357:.\Generated_Source\PSoC4/zigbee.c ****     *
 358:.\Generated_Source\PSoC4/zigbee.c ****     *******************************************************************************/
 359:.\Generated_Source\PSoC4/zigbee.c ****     void zigbee_SetRxInterruptMode(uint8 intSrc) 
 360:.\Generated_Source\PSoC4/zigbee.c ****     {
 361:.\Generated_Source\PSoC4/zigbee.c ****         zigbee_RXSTATUS_MASK_REG  = intSrc;
 362:.\Generated_Source\PSoC4/zigbee.c ****     }
 363:.\Generated_Source\PSoC4/zigbee.c **** 
 364:.\Generated_Source\PSoC4/zigbee.c **** 
 365:.\Generated_Source\PSoC4/zigbee.c ****     /*******************************************************************************
 366:.\Generated_Source\PSoC4/zigbee.c ****     * Function Name: zigbee_ReadRxData
 367:.\Generated_Source\PSoC4/zigbee.c ****     ********************************************************************************
 368:.\Generated_Source\PSoC4/zigbee.c ****     *
 369:.\Generated_Source\PSoC4/zigbee.c ****     * Summary:
 370:.\Generated_Source\PSoC4/zigbee.c ****     *  Returns the next byte of received data. This function returns data without
 371:.\Generated_Source\PSoC4/zigbee.c ****     *  checking the status. You must check the status separately.
 372:.\Generated_Source\PSoC4/zigbee.c ****     *
 373:.\Generated_Source\PSoC4/zigbee.c ****     * Parameters:
 374:.\Generated_Source\PSoC4/zigbee.c ****     *  None.
 375:.\Generated_Source\PSoC4/zigbee.c ****     *
 376:.\Generated_Source\PSoC4/zigbee.c ****     * Return:
 377:.\Generated_Source\PSoC4/zigbee.c ****     *  Received data from RX register
 378:.\Generated_Source\PSoC4/zigbee.c ****     *
 379:.\Generated_Source\PSoC4/zigbee.c ****     * Global Variables:
 380:.\Generated_Source\PSoC4/zigbee.c ****     *  zigbee_rxBuffer - RAM buffer pointer for save received data.
 381:.\Generated_Source\PSoC4/zigbee.c ****     *  zigbee_rxBufferWrite - cyclic index for write to rxBuffer,
 382:.\Generated_Source\PSoC4/zigbee.c ****     *     checked to identify new data.
 383:.\Generated_Source\PSoC4/zigbee.c ****     *  zigbee_rxBufferRead - cyclic index for read from rxBuffer,
 384:.\Generated_Source\PSoC4/zigbee.c ****     *     incremented after each byte has been read from buffer.
 385:.\Generated_Source\PSoC4/zigbee.c ****     *  zigbee_rxBufferLoopDetect - cleared if loop condition was detected
 386:.\Generated_Source\PSoC4/zigbee.c ****     *     in RX ISR.
 387:.\Generated_Source\PSoC4/zigbee.c ****     *
 388:.\Generated_Source\PSoC4/zigbee.c ****     * Reentrant:
 389:.\Generated_Source\PSoC4/zigbee.c ****     *  No.
 390:.\Generated_Source\PSoC4/zigbee.c ****     *
 391:.\Generated_Source\PSoC4/zigbee.c ****     *******************************************************************************/
 392:.\Generated_Source\PSoC4/zigbee.c ****     uint8 zigbee_ReadRxData(void) 
 393:.\Generated_Source\PSoC4/zigbee.c ****     {
 394:.\Generated_Source\PSoC4/zigbee.c ****         uint8 rxData;
 395:.\Generated_Source\PSoC4/zigbee.c **** 
 396:.\Generated_Source\PSoC4/zigbee.c ****     #if (zigbee_RX_INTERRUPT_ENABLED)
 397:.\Generated_Source\PSoC4/zigbee.c **** 
 398:.\Generated_Source\PSoC4/zigbee.c ****         uint8 locRxBufferRead;
 399:.\Generated_Source\PSoC4/zigbee.c ****         uint8 locRxBufferWrite;
 400:.\Generated_Source\PSoC4/zigbee.c **** 
 401:.\Generated_Source\PSoC4/zigbee.c ****         /* Protect variables that could change on interrupt */
 402:.\Generated_Source\PSoC4/zigbee.c ****         zigbee_DisableRxInt();
ARM GAS  C:\Users\Dylan\AppData\Local\Temp\ccGZdebx.s 			page 12


 403:.\Generated_Source\PSoC4/zigbee.c **** 
 404:.\Generated_Source\PSoC4/zigbee.c ****         locRxBufferRead  = zigbee_rxBufferRead;
 405:.\Generated_Source\PSoC4/zigbee.c ****         locRxBufferWrite = zigbee_rxBufferWrite;
 406:.\Generated_Source\PSoC4/zigbee.c **** 
 407:.\Generated_Source\PSoC4/zigbee.c ****         if( (zigbee_rxBufferLoopDetect != 0u) || (locRxBufferRead != locRxBufferWrite) )
 408:.\Generated_Source\PSoC4/zigbee.c ****         {
 409:.\Generated_Source\PSoC4/zigbee.c ****             rxData = zigbee_rxBuffer[locRxBufferRead];
 410:.\Generated_Source\PSoC4/zigbee.c ****             locRxBufferRead++;
 411:.\Generated_Source\PSoC4/zigbee.c **** 
 412:.\Generated_Source\PSoC4/zigbee.c ****             if(locRxBufferRead >= zigbee_RX_BUFFER_SIZE)
 413:.\Generated_Source\PSoC4/zigbee.c ****             {
 414:.\Generated_Source\PSoC4/zigbee.c ****                 locRxBufferRead = 0u;
 415:.\Generated_Source\PSoC4/zigbee.c ****             }
 416:.\Generated_Source\PSoC4/zigbee.c ****             /* Update the real pointer */
 417:.\Generated_Source\PSoC4/zigbee.c ****             zigbee_rxBufferRead = locRxBufferRead;
 418:.\Generated_Source\PSoC4/zigbee.c **** 
 419:.\Generated_Source\PSoC4/zigbee.c ****             if(zigbee_rxBufferLoopDetect != 0u)
 420:.\Generated_Source\PSoC4/zigbee.c ****             {
 421:.\Generated_Source\PSoC4/zigbee.c ****                 zigbee_rxBufferLoopDetect = 0u;
 422:.\Generated_Source\PSoC4/zigbee.c ****                 #if ((zigbee_RX_INTERRUPT_ENABLED) && (zigbee_FLOW_CONTROL != 0u))
 423:.\Generated_Source\PSoC4/zigbee.c ****                     /* When Hardware Flow Control selected - return RX mask */
 424:.\Generated_Source\PSoC4/zigbee.c ****                     #if( zigbee_HD_ENABLED )
 425:.\Generated_Source\PSoC4/zigbee.c ****                         if((zigbee_CONTROL_REG & zigbee_CTRL_HD_SEND) == 0u)
 426:.\Generated_Source\PSoC4/zigbee.c ****                         {   /* In Half duplex mode return RX mask only in RX
 427:.\Generated_Source\PSoC4/zigbee.c ****                             *  configuration set, otherwise
 428:.\Generated_Source\PSoC4/zigbee.c ****                             *  mask will be returned in LoadRxConfig() API.
 429:.\Generated_Source\PSoC4/zigbee.c ****                             */
 430:.\Generated_Source\PSoC4/zigbee.c ****                             zigbee_RXSTATUS_MASK_REG  |= zigbee_RX_STS_FIFO_NOTEMPTY;
 431:.\Generated_Source\PSoC4/zigbee.c ****                         }
 432:.\Generated_Source\PSoC4/zigbee.c ****                     #else
 433:.\Generated_Source\PSoC4/zigbee.c ****                         zigbee_RXSTATUS_MASK_REG  |= zigbee_RX_STS_FIFO_NOTEMPTY;
 434:.\Generated_Source\PSoC4/zigbee.c ****                     #endif /* end zigbee_HD_ENABLED */
 435:.\Generated_Source\PSoC4/zigbee.c ****                 #endif /* ((zigbee_RX_INTERRUPT_ENABLED) && (zigbee_FLOW_CONTROL != 0u)) */
 436:.\Generated_Source\PSoC4/zigbee.c ****             }
 437:.\Generated_Source\PSoC4/zigbee.c ****         }
 438:.\Generated_Source\PSoC4/zigbee.c ****         else
 439:.\Generated_Source\PSoC4/zigbee.c ****         {   /* Needs to check status for RX_STS_FIFO_NOTEMPTY bit */
 440:.\Generated_Source\PSoC4/zigbee.c ****             rxData = zigbee_RXDATA_REG;
 441:.\Generated_Source\PSoC4/zigbee.c ****         }
 442:.\Generated_Source\PSoC4/zigbee.c **** 
 443:.\Generated_Source\PSoC4/zigbee.c ****         zigbee_EnableRxInt();
 444:.\Generated_Source\PSoC4/zigbee.c **** 
 445:.\Generated_Source\PSoC4/zigbee.c ****     #else
 446:.\Generated_Source\PSoC4/zigbee.c **** 
 447:.\Generated_Source\PSoC4/zigbee.c ****         /* Needs to check status for RX_STS_FIFO_NOTEMPTY bit */
 448:.\Generated_Source\PSoC4/zigbee.c ****         rxData = zigbee_RXDATA_REG;
 449:.\Generated_Source\PSoC4/zigbee.c **** 
 450:.\Generated_Source\PSoC4/zigbee.c ****     #endif /* (zigbee_RX_INTERRUPT_ENABLED) */
 451:.\Generated_Source\PSoC4/zigbee.c **** 
 452:.\Generated_Source\PSoC4/zigbee.c ****         return(rxData);
 453:.\Generated_Source\PSoC4/zigbee.c ****     }
 454:.\Generated_Source\PSoC4/zigbee.c **** 
 455:.\Generated_Source\PSoC4/zigbee.c **** 
 456:.\Generated_Source\PSoC4/zigbee.c ****     /*******************************************************************************
 457:.\Generated_Source\PSoC4/zigbee.c ****     * Function Name: zigbee_ReadRxStatus
 458:.\Generated_Source\PSoC4/zigbee.c ****     ********************************************************************************
 459:.\Generated_Source\PSoC4/zigbee.c ****     *
ARM GAS  C:\Users\Dylan\AppData\Local\Temp\ccGZdebx.s 			page 13


 460:.\Generated_Source\PSoC4/zigbee.c ****     * Summary:
 461:.\Generated_Source\PSoC4/zigbee.c ****     *  Returns the current state of the receiver status register and the software
 462:.\Generated_Source\PSoC4/zigbee.c ****     *  buffer overflow status.
 463:.\Generated_Source\PSoC4/zigbee.c ****     *
 464:.\Generated_Source\PSoC4/zigbee.c ****     * Parameters:
 465:.\Generated_Source\PSoC4/zigbee.c ****     *  None.
 466:.\Generated_Source\PSoC4/zigbee.c ****     *
 467:.\Generated_Source\PSoC4/zigbee.c ****     * Return:
 468:.\Generated_Source\PSoC4/zigbee.c ****     *  Current state of the status register.
 469:.\Generated_Source\PSoC4/zigbee.c ****     *
 470:.\Generated_Source\PSoC4/zigbee.c ****     * Side Effect:
 471:.\Generated_Source\PSoC4/zigbee.c ****     *  All status register bits are clear-on-read except
 472:.\Generated_Source\PSoC4/zigbee.c ****     *  zigbee_RX_STS_FIFO_NOTEMPTY.
 473:.\Generated_Source\PSoC4/zigbee.c ****     *  zigbee_RX_STS_FIFO_NOTEMPTY clears immediately after RX data
 474:.\Generated_Source\PSoC4/zigbee.c ****     *  register read.
 475:.\Generated_Source\PSoC4/zigbee.c ****     *
 476:.\Generated_Source\PSoC4/zigbee.c ****     * Global Variables:
 477:.\Generated_Source\PSoC4/zigbee.c ****     *  zigbee_rxBufferOverflow - used to indicate overload condition.
 478:.\Generated_Source\PSoC4/zigbee.c ****     *   It set to one in RX interrupt when there isn't free space in
 479:.\Generated_Source\PSoC4/zigbee.c ****     *   zigbee_rxBufferRead to write new data. This condition returned
 480:.\Generated_Source\PSoC4/zigbee.c ****     *   and cleared to zero by this API as an
 481:.\Generated_Source\PSoC4/zigbee.c ****     *   zigbee_RX_STS_SOFT_BUFF_OVER bit along with RX Status register
 482:.\Generated_Source\PSoC4/zigbee.c ****     *   bits.
 483:.\Generated_Source\PSoC4/zigbee.c ****     *
 484:.\Generated_Source\PSoC4/zigbee.c ****     *******************************************************************************/
 485:.\Generated_Source\PSoC4/zigbee.c ****     uint8 zigbee_ReadRxStatus(void) 
 486:.\Generated_Source\PSoC4/zigbee.c ****     {
 487:.\Generated_Source\PSoC4/zigbee.c ****         uint8 status;
 488:.\Generated_Source\PSoC4/zigbee.c **** 
 489:.\Generated_Source\PSoC4/zigbee.c ****         status = zigbee_RXSTATUS_REG & zigbee_RX_HW_MASK;
 490:.\Generated_Source\PSoC4/zigbee.c **** 
 491:.\Generated_Source\PSoC4/zigbee.c ****     #if (zigbee_RX_INTERRUPT_ENABLED)
 492:.\Generated_Source\PSoC4/zigbee.c ****         if(zigbee_rxBufferOverflow != 0u)
 493:.\Generated_Source\PSoC4/zigbee.c ****         {
 494:.\Generated_Source\PSoC4/zigbee.c ****             status |= zigbee_RX_STS_SOFT_BUFF_OVER;
 495:.\Generated_Source\PSoC4/zigbee.c ****             zigbee_rxBufferOverflow = 0u;
 496:.\Generated_Source\PSoC4/zigbee.c ****         }
 497:.\Generated_Source\PSoC4/zigbee.c ****     #endif /* (zigbee_RX_INTERRUPT_ENABLED) */
 498:.\Generated_Source\PSoC4/zigbee.c **** 
 499:.\Generated_Source\PSoC4/zigbee.c ****         return(status);
 500:.\Generated_Source\PSoC4/zigbee.c ****     }
 501:.\Generated_Source\PSoC4/zigbee.c **** 
 502:.\Generated_Source\PSoC4/zigbee.c **** 
 503:.\Generated_Source\PSoC4/zigbee.c ****     /*******************************************************************************
 504:.\Generated_Source\PSoC4/zigbee.c ****     * Function Name: zigbee_GetChar
 505:.\Generated_Source\PSoC4/zigbee.c ****     ********************************************************************************
 506:.\Generated_Source\PSoC4/zigbee.c ****     *
 507:.\Generated_Source\PSoC4/zigbee.c ****     * Summary:
 508:.\Generated_Source\PSoC4/zigbee.c ****     *  Returns the last received byte of data. zigbee_GetChar() is
 509:.\Generated_Source\PSoC4/zigbee.c ****     *  designed for ASCII characters and returns a uint8 where 1 to 255 are values
 510:.\Generated_Source\PSoC4/zigbee.c ****     *  for valid characters and 0 indicates an error occurred or no data is present.
 511:.\Generated_Source\PSoC4/zigbee.c ****     *
 512:.\Generated_Source\PSoC4/zigbee.c ****     * Parameters:
 513:.\Generated_Source\PSoC4/zigbee.c ****     *  None.
 514:.\Generated_Source\PSoC4/zigbee.c ****     *
 515:.\Generated_Source\PSoC4/zigbee.c ****     * Return:
 516:.\Generated_Source\PSoC4/zigbee.c ****     *  Character read from UART RX buffer. ASCII characters from 1 to 255 are valid.
ARM GAS  C:\Users\Dylan\AppData\Local\Temp\ccGZdebx.s 			page 14


 517:.\Generated_Source\PSoC4/zigbee.c ****     *  A returned zero signifies an error condition or no data available.
 518:.\Generated_Source\PSoC4/zigbee.c ****     *
 519:.\Generated_Source\PSoC4/zigbee.c ****     * Global Variables:
 520:.\Generated_Source\PSoC4/zigbee.c ****     *  zigbee_rxBuffer - RAM buffer pointer for save received data.
 521:.\Generated_Source\PSoC4/zigbee.c ****     *  zigbee_rxBufferWrite - cyclic index for write to rxBuffer,
 522:.\Generated_Source\PSoC4/zigbee.c ****     *     checked to identify new data.
 523:.\Generated_Source\PSoC4/zigbee.c ****     *  zigbee_rxBufferRead - cyclic index for read from rxBuffer,
 524:.\Generated_Source\PSoC4/zigbee.c ****     *     incremented after each byte has been read from buffer.
 525:.\Generated_Source\PSoC4/zigbee.c ****     *  zigbee_rxBufferLoopDetect - cleared if loop condition was detected
 526:.\Generated_Source\PSoC4/zigbee.c ****     *     in RX ISR.
 527:.\Generated_Source\PSoC4/zigbee.c ****     *
 528:.\Generated_Source\PSoC4/zigbee.c ****     * Reentrant:
 529:.\Generated_Source\PSoC4/zigbee.c ****     *  No.
 530:.\Generated_Source\PSoC4/zigbee.c ****     *
 531:.\Generated_Source\PSoC4/zigbee.c ****     *******************************************************************************/
 532:.\Generated_Source\PSoC4/zigbee.c ****     uint8 zigbee_GetChar(void) 
 533:.\Generated_Source\PSoC4/zigbee.c ****     {
 534:.\Generated_Source\PSoC4/zigbee.c ****         uint8 rxData = 0u;
 535:.\Generated_Source\PSoC4/zigbee.c ****         uint8 rxStatus;
 536:.\Generated_Source\PSoC4/zigbee.c **** 
 537:.\Generated_Source\PSoC4/zigbee.c ****     #if (zigbee_RX_INTERRUPT_ENABLED)
 538:.\Generated_Source\PSoC4/zigbee.c ****         uint8 locRxBufferRead;
 539:.\Generated_Source\PSoC4/zigbee.c ****         uint8 locRxBufferWrite;
 540:.\Generated_Source\PSoC4/zigbee.c **** 
 541:.\Generated_Source\PSoC4/zigbee.c ****         /* Protect variables that could change on interrupt */
 542:.\Generated_Source\PSoC4/zigbee.c ****         zigbee_DisableRxInt();
 543:.\Generated_Source\PSoC4/zigbee.c **** 
 544:.\Generated_Source\PSoC4/zigbee.c ****         locRxBufferRead  = zigbee_rxBufferRead;
 545:.\Generated_Source\PSoC4/zigbee.c ****         locRxBufferWrite = zigbee_rxBufferWrite;
 546:.\Generated_Source\PSoC4/zigbee.c **** 
 547:.\Generated_Source\PSoC4/zigbee.c ****         if( (zigbee_rxBufferLoopDetect != 0u) || (locRxBufferRead != locRxBufferWrite) )
 548:.\Generated_Source\PSoC4/zigbee.c ****         {
 549:.\Generated_Source\PSoC4/zigbee.c ****             rxData = zigbee_rxBuffer[locRxBufferRead];
 550:.\Generated_Source\PSoC4/zigbee.c ****             locRxBufferRead++;
 551:.\Generated_Source\PSoC4/zigbee.c ****             if(locRxBufferRead >= zigbee_RX_BUFFER_SIZE)
 552:.\Generated_Source\PSoC4/zigbee.c ****             {
 553:.\Generated_Source\PSoC4/zigbee.c ****                 locRxBufferRead = 0u;
 554:.\Generated_Source\PSoC4/zigbee.c ****             }
 555:.\Generated_Source\PSoC4/zigbee.c ****             /* Update the real pointer */
 556:.\Generated_Source\PSoC4/zigbee.c ****             zigbee_rxBufferRead = locRxBufferRead;
 557:.\Generated_Source\PSoC4/zigbee.c **** 
 558:.\Generated_Source\PSoC4/zigbee.c ****             if(zigbee_rxBufferLoopDetect != 0u)
 559:.\Generated_Source\PSoC4/zigbee.c ****             {
 560:.\Generated_Source\PSoC4/zigbee.c ****                 zigbee_rxBufferLoopDetect = 0u;
 561:.\Generated_Source\PSoC4/zigbee.c ****                 #if( (zigbee_RX_INTERRUPT_ENABLED) && (zigbee_FLOW_CONTROL != 0u) )
 562:.\Generated_Source\PSoC4/zigbee.c ****                     /* When Hardware Flow Control selected - return RX mask */
 563:.\Generated_Source\PSoC4/zigbee.c ****                     #if( zigbee_HD_ENABLED )
 564:.\Generated_Source\PSoC4/zigbee.c ****                         if((zigbee_CONTROL_REG & zigbee_CTRL_HD_SEND) == 0u)
 565:.\Generated_Source\PSoC4/zigbee.c ****                         {   /* In Half duplex mode return RX mask only if
 566:.\Generated_Source\PSoC4/zigbee.c ****                             *  RX configuration set, otherwise
 567:.\Generated_Source\PSoC4/zigbee.c ****                             *  mask will be returned in LoadRxConfig() API.
 568:.\Generated_Source\PSoC4/zigbee.c ****                             */
 569:.\Generated_Source\PSoC4/zigbee.c ****                             zigbee_RXSTATUS_MASK_REG |= zigbee_RX_STS_FIFO_NOTEMPTY;
 570:.\Generated_Source\PSoC4/zigbee.c ****                         }
 571:.\Generated_Source\PSoC4/zigbee.c ****                     #else
 572:.\Generated_Source\PSoC4/zigbee.c ****                         zigbee_RXSTATUS_MASK_REG |= zigbee_RX_STS_FIFO_NOTEMPTY;
 573:.\Generated_Source\PSoC4/zigbee.c ****                     #endif /* end zigbee_HD_ENABLED */
ARM GAS  C:\Users\Dylan\AppData\Local\Temp\ccGZdebx.s 			page 15


 574:.\Generated_Source\PSoC4/zigbee.c ****                 #endif /* zigbee_RX_INTERRUPT_ENABLED and Hardware flow control*/
 575:.\Generated_Source\PSoC4/zigbee.c ****             }
 576:.\Generated_Source\PSoC4/zigbee.c **** 
 577:.\Generated_Source\PSoC4/zigbee.c ****         }
 578:.\Generated_Source\PSoC4/zigbee.c ****         else
 579:.\Generated_Source\PSoC4/zigbee.c ****         {   rxStatus = zigbee_RXSTATUS_REG;
 580:.\Generated_Source\PSoC4/zigbee.c ****             if((rxStatus & zigbee_RX_STS_FIFO_NOTEMPTY) != 0u)
 581:.\Generated_Source\PSoC4/zigbee.c ****             {   /* Read received data from FIFO */
 582:.\Generated_Source\PSoC4/zigbee.c ****                 rxData = zigbee_RXDATA_REG;
 583:.\Generated_Source\PSoC4/zigbee.c ****                 /*Check status on error*/
 584:.\Generated_Source\PSoC4/zigbee.c ****                 if((rxStatus & (zigbee_RX_STS_BREAK | zigbee_RX_STS_PAR_ERROR |
 585:.\Generated_Source\PSoC4/zigbee.c ****                                 zigbee_RX_STS_STOP_ERROR | zigbee_RX_STS_OVERRUN)) != 0u)
 586:.\Generated_Source\PSoC4/zigbee.c ****                 {
 587:.\Generated_Source\PSoC4/zigbee.c ****                     rxData = 0u;
 588:.\Generated_Source\PSoC4/zigbee.c ****                 }
 589:.\Generated_Source\PSoC4/zigbee.c ****             }
 590:.\Generated_Source\PSoC4/zigbee.c ****         }
 591:.\Generated_Source\PSoC4/zigbee.c **** 
 592:.\Generated_Source\PSoC4/zigbee.c ****         zigbee_EnableRxInt();
 593:.\Generated_Source\PSoC4/zigbee.c **** 
 594:.\Generated_Source\PSoC4/zigbee.c ****     #else
 595:.\Generated_Source\PSoC4/zigbee.c **** 
 596:.\Generated_Source\PSoC4/zigbee.c ****         rxStatus =zigbee_RXSTATUS_REG;
 597:.\Generated_Source\PSoC4/zigbee.c ****         if((rxStatus & zigbee_RX_STS_FIFO_NOTEMPTY) != 0u)
 598:.\Generated_Source\PSoC4/zigbee.c ****         {
 599:.\Generated_Source\PSoC4/zigbee.c ****             /* Read received data from FIFO */
 600:.\Generated_Source\PSoC4/zigbee.c ****             rxData = zigbee_RXDATA_REG;
 601:.\Generated_Source\PSoC4/zigbee.c **** 
 602:.\Generated_Source\PSoC4/zigbee.c ****             /*Check status on error*/
 603:.\Generated_Source\PSoC4/zigbee.c ****             if((rxStatus & (zigbee_RX_STS_BREAK | zigbee_RX_STS_PAR_ERROR |
 604:.\Generated_Source\PSoC4/zigbee.c ****                             zigbee_RX_STS_STOP_ERROR | zigbee_RX_STS_OVERRUN)) != 0u)
 605:.\Generated_Source\PSoC4/zigbee.c ****             {
 606:.\Generated_Source\PSoC4/zigbee.c ****                 rxData = 0u;
 607:.\Generated_Source\PSoC4/zigbee.c ****             }
 608:.\Generated_Source\PSoC4/zigbee.c ****         }
 609:.\Generated_Source\PSoC4/zigbee.c ****     #endif /* (zigbee_RX_INTERRUPT_ENABLED) */
 610:.\Generated_Source\PSoC4/zigbee.c **** 
 611:.\Generated_Source\PSoC4/zigbee.c ****         return(rxData);
 612:.\Generated_Source\PSoC4/zigbee.c ****     }
 613:.\Generated_Source\PSoC4/zigbee.c **** 
 614:.\Generated_Source\PSoC4/zigbee.c **** 
 615:.\Generated_Source\PSoC4/zigbee.c ****     /*******************************************************************************
 616:.\Generated_Source\PSoC4/zigbee.c ****     * Function Name: zigbee_GetByte
 617:.\Generated_Source\PSoC4/zigbee.c ****     ********************************************************************************
 618:.\Generated_Source\PSoC4/zigbee.c ****     *
 619:.\Generated_Source\PSoC4/zigbee.c ****     * Summary:
 620:.\Generated_Source\PSoC4/zigbee.c ****     *  Reads UART RX buffer immediately, returns received character and error
 621:.\Generated_Source\PSoC4/zigbee.c ****     *  condition.
 622:.\Generated_Source\PSoC4/zigbee.c ****     *
 623:.\Generated_Source\PSoC4/zigbee.c ****     * Parameters:
 624:.\Generated_Source\PSoC4/zigbee.c ****     *  None.
 625:.\Generated_Source\PSoC4/zigbee.c ****     *
 626:.\Generated_Source\PSoC4/zigbee.c ****     * Return:
 627:.\Generated_Source\PSoC4/zigbee.c ****     *  MSB contains status and LSB contains UART RX data. If the MSB is nonzero,
 628:.\Generated_Source\PSoC4/zigbee.c ****     *  an error has occurred.
 629:.\Generated_Source\PSoC4/zigbee.c ****     *
 630:.\Generated_Source\PSoC4/zigbee.c ****     * Reentrant:
ARM GAS  C:\Users\Dylan\AppData\Local\Temp\ccGZdebx.s 			page 16


 631:.\Generated_Source\PSoC4/zigbee.c ****     *  No.
 632:.\Generated_Source\PSoC4/zigbee.c ****     *
 633:.\Generated_Source\PSoC4/zigbee.c ****     *******************************************************************************/
 634:.\Generated_Source\PSoC4/zigbee.c ****     uint16 zigbee_GetByte(void) 
 635:.\Generated_Source\PSoC4/zigbee.c ****     {
 636:.\Generated_Source\PSoC4/zigbee.c ****         
 637:.\Generated_Source\PSoC4/zigbee.c ****     #if (zigbee_RX_INTERRUPT_ENABLED)
 638:.\Generated_Source\PSoC4/zigbee.c ****         uint16 locErrorStatus;
 639:.\Generated_Source\PSoC4/zigbee.c ****         /* Protect variables that could change on interrupt */
 640:.\Generated_Source\PSoC4/zigbee.c ****         zigbee_DisableRxInt();
 641:.\Generated_Source\PSoC4/zigbee.c ****         locErrorStatus = (uint16)zigbee_errorStatus;
 642:.\Generated_Source\PSoC4/zigbee.c ****         zigbee_errorStatus = 0u;
 643:.\Generated_Source\PSoC4/zigbee.c ****         zigbee_EnableRxInt();
 644:.\Generated_Source\PSoC4/zigbee.c ****         return ( (uint16)(locErrorStatus << 8u) | zigbee_ReadRxData() );
 645:.\Generated_Source\PSoC4/zigbee.c ****     #else
 646:.\Generated_Source\PSoC4/zigbee.c ****         return ( ((uint16)zigbee_ReadRxStatus() << 8u) | zigbee_ReadRxData() );
 647:.\Generated_Source\PSoC4/zigbee.c ****     #endif /* zigbee_RX_INTERRUPT_ENABLED */
 648:.\Generated_Source\PSoC4/zigbee.c ****         
 649:.\Generated_Source\PSoC4/zigbee.c ****     }
 650:.\Generated_Source\PSoC4/zigbee.c **** 
 651:.\Generated_Source\PSoC4/zigbee.c **** 
 652:.\Generated_Source\PSoC4/zigbee.c ****     /*******************************************************************************
 653:.\Generated_Source\PSoC4/zigbee.c ****     * Function Name: zigbee_GetRxBufferSize
 654:.\Generated_Source\PSoC4/zigbee.c ****     ********************************************************************************
 655:.\Generated_Source\PSoC4/zigbee.c ****     *
 656:.\Generated_Source\PSoC4/zigbee.c ****     * Summary:
 657:.\Generated_Source\PSoC4/zigbee.c ****     *  Returns the number of received bytes available in the RX buffer.
 658:.\Generated_Source\PSoC4/zigbee.c ****     *  * RX software buffer is disabled (RX Buffer Size parameter is equal to 4): 
 659:.\Generated_Source\PSoC4/zigbee.c ****     *    returns 0 for empty RX FIFO or 1 for not empty RX FIFO.
 660:.\Generated_Source\PSoC4/zigbee.c ****     *  * RX software buffer is enabled: returns the number of bytes available in 
 661:.\Generated_Source\PSoC4/zigbee.c ****     *    the RX software buffer. Bytes available in the RX FIFO do not take to 
 662:.\Generated_Source\PSoC4/zigbee.c ****     *    account.
 663:.\Generated_Source\PSoC4/zigbee.c ****     *
 664:.\Generated_Source\PSoC4/zigbee.c ****     * Parameters:
 665:.\Generated_Source\PSoC4/zigbee.c ****     *  None.
 666:.\Generated_Source\PSoC4/zigbee.c ****     *
 667:.\Generated_Source\PSoC4/zigbee.c ****     * Return:
 668:.\Generated_Source\PSoC4/zigbee.c ****     *  uint8: Number of bytes in the RX buffer. 
 669:.\Generated_Source\PSoC4/zigbee.c ****     *    Return value type depends on RX Buffer Size parameter.
 670:.\Generated_Source\PSoC4/zigbee.c ****     *
 671:.\Generated_Source\PSoC4/zigbee.c ****     * Global Variables:
 672:.\Generated_Source\PSoC4/zigbee.c ****     *  zigbee_rxBufferWrite - used to calculate left bytes.
 673:.\Generated_Source\PSoC4/zigbee.c ****     *  zigbee_rxBufferRead - used to calculate left bytes.
 674:.\Generated_Source\PSoC4/zigbee.c ****     *  zigbee_rxBufferLoopDetect - checked to decide left bytes amount.
 675:.\Generated_Source\PSoC4/zigbee.c ****     *
 676:.\Generated_Source\PSoC4/zigbee.c ****     * Reentrant:
 677:.\Generated_Source\PSoC4/zigbee.c ****     *  No.
 678:.\Generated_Source\PSoC4/zigbee.c ****     *
 679:.\Generated_Source\PSoC4/zigbee.c ****     * Theory:
 680:.\Generated_Source\PSoC4/zigbee.c ****     *  Allows the user to find out how full the RX Buffer is.
 681:.\Generated_Source\PSoC4/zigbee.c ****     *
 682:.\Generated_Source\PSoC4/zigbee.c ****     *******************************************************************************/
 683:.\Generated_Source\PSoC4/zigbee.c ****     uint8 zigbee_GetRxBufferSize(void)
 684:.\Generated_Source\PSoC4/zigbee.c ****                                                             
 685:.\Generated_Source\PSoC4/zigbee.c ****     {
 686:.\Generated_Source\PSoC4/zigbee.c ****         uint8 size;
 687:.\Generated_Source\PSoC4/zigbee.c **** 
ARM GAS  C:\Users\Dylan\AppData\Local\Temp\ccGZdebx.s 			page 17


 688:.\Generated_Source\PSoC4/zigbee.c ****     #if (zigbee_RX_INTERRUPT_ENABLED)
 689:.\Generated_Source\PSoC4/zigbee.c **** 
 690:.\Generated_Source\PSoC4/zigbee.c ****         /* Protect variables that could change on interrupt */
 691:.\Generated_Source\PSoC4/zigbee.c ****         zigbee_DisableRxInt();
 692:.\Generated_Source\PSoC4/zigbee.c **** 
 693:.\Generated_Source\PSoC4/zigbee.c ****         if(zigbee_rxBufferRead == zigbee_rxBufferWrite)
 694:.\Generated_Source\PSoC4/zigbee.c ****         {
 695:.\Generated_Source\PSoC4/zigbee.c ****             if(zigbee_rxBufferLoopDetect != 0u)
 696:.\Generated_Source\PSoC4/zigbee.c ****             {
 697:.\Generated_Source\PSoC4/zigbee.c ****                 size = zigbee_RX_BUFFER_SIZE;
 698:.\Generated_Source\PSoC4/zigbee.c ****             }
 699:.\Generated_Source\PSoC4/zigbee.c ****             else
 700:.\Generated_Source\PSoC4/zigbee.c ****             {
 701:.\Generated_Source\PSoC4/zigbee.c ****                 size = 0u;
 702:.\Generated_Source\PSoC4/zigbee.c ****             }
 703:.\Generated_Source\PSoC4/zigbee.c ****         }
 704:.\Generated_Source\PSoC4/zigbee.c ****         else if(zigbee_rxBufferRead < zigbee_rxBufferWrite)
 705:.\Generated_Source\PSoC4/zigbee.c ****         {
 706:.\Generated_Source\PSoC4/zigbee.c ****             size = (zigbee_rxBufferWrite - zigbee_rxBufferRead);
 707:.\Generated_Source\PSoC4/zigbee.c ****         }
 708:.\Generated_Source\PSoC4/zigbee.c ****         else
 709:.\Generated_Source\PSoC4/zigbee.c ****         {
 710:.\Generated_Source\PSoC4/zigbee.c ****             size = (zigbee_RX_BUFFER_SIZE - zigbee_rxBufferRead) + zigbee_rxBufferWrite;
 711:.\Generated_Source\PSoC4/zigbee.c ****         }
 712:.\Generated_Source\PSoC4/zigbee.c **** 
 713:.\Generated_Source\PSoC4/zigbee.c ****         zigbee_EnableRxInt();
 714:.\Generated_Source\PSoC4/zigbee.c **** 
 715:.\Generated_Source\PSoC4/zigbee.c ****     #else
 716:.\Generated_Source\PSoC4/zigbee.c **** 
 717:.\Generated_Source\PSoC4/zigbee.c ****         /* We can only know if there is data in the fifo. */
 718:.\Generated_Source\PSoC4/zigbee.c ****         size = ((zigbee_RXSTATUS_REG & zigbee_RX_STS_FIFO_NOTEMPTY) != 0u) ? 1u : 0u;
 719:.\Generated_Source\PSoC4/zigbee.c **** 
 720:.\Generated_Source\PSoC4/zigbee.c ****     #endif /* (zigbee_RX_INTERRUPT_ENABLED) */
 721:.\Generated_Source\PSoC4/zigbee.c **** 
 722:.\Generated_Source\PSoC4/zigbee.c ****         return(size);
 723:.\Generated_Source\PSoC4/zigbee.c ****     }
 724:.\Generated_Source\PSoC4/zigbee.c **** 
 725:.\Generated_Source\PSoC4/zigbee.c **** 
 726:.\Generated_Source\PSoC4/zigbee.c ****     /*******************************************************************************
 727:.\Generated_Source\PSoC4/zigbee.c ****     * Function Name: zigbee_ClearRxBuffer
 728:.\Generated_Source\PSoC4/zigbee.c ****     ********************************************************************************
 729:.\Generated_Source\PSoC4/zigbee.c ****     *
 730:.\Generated_Source\PSoC4/zigbee.c ****     * Summary:
 731:.\Generated_Source\PSoC4/zigbee.c ****     *  Clears the receiver memory buffer and hardware RX FIFO of all received data.
 732:.\Generated_Source\PSoC4/zigbee.c ****     *
 733:.\Generated_Source\PSoC4/zigbee.c ****     * Parameters:
 734:.\Generated_Source\PSoC4/zigbee.c ****     *  None.
 735:.\Generated_Source\PSoC4/zigbee.c ****     *
 736:.\Generated_Source\PSoC4/zigbee.c ****     * Return:
 737:.\Generated_Source\PSoC4/zigbee.c ****     *  None.
 738:.\Generated_Source\PSoC4/zigbee.c ****     *
 739:.\Generated_Source\PSoC4/zigbee.c ****     * Global Variables:
 740:.\Generated_Source\PSoC4/zigbee.c ****     *  zigbee_rxBufferWrite - cleared to zero.
 741:.\Generated_Source\PSoC4/zigbee.c ****     *  zigbee_rxBufferRead - cleared to zero.
 742:.\Generated_Source\PSoC4/zigbee.c ****     *  zigbee_rxBufferLoopDetect - cleared to zero.
 743:.\Generated_Source\PSoC4/zigbee.c ****     *  zigbee_rxBufferOverflow - cleared to zero.
 744:.\Generated_Source\PSoC4/zigbee.c ****     *
ARM GAS  C:\Users\Dylan\AppData\Local\Temp\ccGZdebx.s 			page 18


 745:.\Generated_Source\PSoC4/zigbee.c ****     * Reentrant:
 746:.\Generated_Source\PSoC4/zigbee.c ****     *  No.
 747:.\Generated_Source\PSoC4/zigbee.c ****     *
 748:.\Generated_Source\PSoC4/zigbee.c ****     * Theory:
 749:.\Generated_Source\PSoC4/zigbee.c ****     *  Setting the pointers to zero makes the system believe there is no data to
 750:.\Generated_Source\PSoC4/zigbee.c ****     *  read and writing will resume at address 0 overwriting any data that may
 751:.\Generated_Source\PSoC4/zigbee.c ****     *  have remained in the RAM.
 752:.\Generated_Source\PSoC4/zigbee.c ****     *
 753:.\Generated_Source\PSoC4/zigbee.c ****     * Side Effects:
 754:.\Generated_Source\PSoC4/zigbee.c ****     *  Any received data not read from the RAM or FIFO buffer will be lost.
 755:.\Generated_Source\PSoC4/zigbee.c ****     *
 756:.\Generated_Source\PSoC4/zigbee.c ****     *******************************************************************************/
 757:.\Generated_Source\PSoC4/zigbee.c ****     void zigbee_ClearRxBuffer(void) 
 758:.\Generated_Source\PSoC4/zigbee.c ****     {
 759:.\Generated_Source\PSoC4/zigbee.c ****         uint8 enableInterrupts;
 760:.\Generated_Source\PSoC4/zigbee.c **** 
 761:.\Generated_Source\PSoC4/zigbee.c ****         /* Clear the HW FIFO */
 762:.\Generated_Source\PSoC4/zigbee.c ****         enableInterrupts = CyEnterCriticalSection();
 763:.\Generated_Source\PSoC4/zigbee.c ****         zigbee_RXDATA_AUX_CTL_REG |= (uint8)  zigbee_RX_FIFO_CLR;
 764:.\Generated_Source\PSoC4/zigbee.c ****         zigbee_RXDATA_AUX_CTL_REG &= (uint8) ~zigbee_RX_FIFO_CLR;
 765:.\Generated_Source\PSoC4/zigbee.c ****         CyExitCriticalSection(enableInterrupts);
 766:.\Generated_Source\PSoC4/zigbee.c **** 
 767:.\Generated_Source\PSoC4/zigbee.c ****     #if (zigbee_RX_INTERRUPT_ENABLED)
 768:.\Generated_Source\PSoC4/zigbee.c **** 
 769:.\Generated_Source\PSoC4/zigbee.c ****         /* Protect variables that could change on interrupt. */
 770:.\Generated_Source\PSoC4/zigbee.c ****         zigbee_DisableRxInt();
 771:.\Generated_Source\PSoC4/zigbee.c **** 
 772:.\Generated_Source\PSoC4/zigbee.c ****         zigbee_rxBufferRead = 0u;
 773:.\Generated_Source\PSoC4/zigbee.c ****         zigbee_rxBufferWrite = 0u;
 774:.\Generated_Source\PSoC4/zigbee.c ****         zigbee_rxBufferLoopDetect = 0u;
 775:.\Generated_Source\PSoC4/zigbee.c ****         zigbee_rxBufferOverflow = 0u;
 776:.\Generated_Source\PSoC4/zigbee.c **** 
 777:.\Generated_Source\PSoC4/zigbee.c ****         zigbee_EnableRxInt();
 778:.\Generated_Source\PSoC4/zigbee.c **** 
 779:.\Generated_Source\PSoC4/zigbee.c ****     #endif /* (zigbee_RX_INTERRUPT_ENABLED) */
 780:.\Generated_Source\PSoC4/zigbee.c **** 
 781:.\Generated_Source\PSoC4/zigbee.c ****     }
 782:.\Generated_Source\PSoC4/zigbee.c **** 
 783:.\Generated_Source\PSoC4/zigbee.c **** 
 784:.\Generated_Source\PSoC4/zigbee.c ****     /*******************************************************************************
 785:.\Generated_Source\PSoC4/zigbee.c ****     * Function Name: zigbee_SetRxAddressMode
 786:.\Generated_Source\PSoC4/zigbee.c ****     ********************************************************************************
 787:.\Generated_Source\PSoC4/zigbee.c ****     *
 788:.\Generated_Source\PSoC4/zigbee.c ****     * Summary:
 789:.\Generated_Source\PSoC4/zigbee.c ****     *  Sets the software controlled Addressing mode used by the RX portion of the
 790:.\Generated_Source\PSoC4/zigbee.c ****     *  UART.
 791:.\Generated_Source\PSoC4/zigbee.c ****     *
 792:.\Generated_Source\PSoC4/zigbee.c ****     * Parameters:
 793:.\Generated_Source\PSoC4/zigbee.c ****     *  addressMode: Enumerated value indicating the mode of RX addressing
 794:.\Generated_Source\PSoC4/zigbee.c ****     *  zigbee__B_UART__AM_SW_BYTE_BYTE -  Software Byte-by-Byte address
 795:.\Generated_Source\PSoC4/zigbee.c ****     *                                               detection
 796:.\Generated_Source\PSoC4/zigbee.c ****     *  zigbee__B_UART__AM_SW_DETECT_TO_BUFFER - Software Detect to Buffer
 797:.\Generated_Source\PSoC4/zigbee.c ****     *                                               address detection
 798:.\Generated_Source\PSoC4/zigbee.c ****     *  zigbee__B_UART__AM_HW_BYTE_BY_BYTE - Hardware Byte-by-Byte address
 799:.\Generated_Source\PSoC4/zigbee.c ****     *                                               detection
 800:.\Generated_Source\PSoC4/zigbee.c ****     *  zigbee__B_UART__AM_HW_DETECT_TO_BUFFER - Hardware Detect to Buffer
 801:.\Generated_Source\PSoC4/zigbee.c ****     *                                               address detection
ARM GAS  C:\Users\Dylan\AppData\Local\Temp\ccGZdebx.s 			page 19


 802:.\Generated_Source\PSoC4/zigbee.c ****     *  zigbee__B_UART__AM_NONE - No address detection
 803:.\Generated_Source\PSoC4/zigbee.c ****     *
 804:.\Generated_Source\PSoC4/zigbee.c ****     * Return:
 805:.\Generated_Source\PSoC4/zigbee.c ****     *  None.
 806:.\Generated_Source\PSoC4/zigbee.c ****     *
 807:.\Generated_Source\PSoC4/zigbee.c ****     * Global Variables:
 808:.\Generated_Source\PSoC4/zigbee.c ****     *  zigbee_rxAddressMode - the parameter stored in this variable for
 809:.\Generated_Source\PSoC4/zigbee.c ****     *   the farther usage in RX ISR.
 810:.\Generated_Source\PSoC4/zigbee.c ****     *  zigbee_rxAddressDetected - set to initial state (0).
 811:.\Generated_Source\PSoC4/zigbee.c ****     *
 812:.\Generated_Source\PSoC4/zigbee.c ****     *******************************************************************************/
 813:.\Generated_Source\PSoC4/zigbee.c ****     void zigbee_SetRxAddressMode(uint8 addressMode)
 814:.\Generated_Source\PSoC4/zigbee.c ****                                                         
 815:.\Generated_Source\PSoC4/zigbee.c ****     {
 816:.\Generated_Source\PSoC4/zigbee.c ****         #if(zigbee_RXHW_ADDRESS_ENABLED)
 817:.\Generated_Source\PSoC4/zigbee.c ****             #if(zigbee_CONTROL_REG_REMOVED)
 818:.\Generated_Source\PSoC4/zigbee.c ****                 if(0u != addressMode)
 819:.\Generated_Source\PSoC4/zigbee.c ****                 {
 820:.\Generated_Source\PSoC4/zigbee.c ****                     /* Suppress compiler warning */
 821:.\Generated_Source\PSoC4/zigbee.c ****                 }
 822:.\Generated_Source\PSoC4/zigbee.c ****             #else /* zigbee_CONTROL_REG_REMOVED */
 823:.\Generated_Source\PSoC4/zigbee.c ****                 uint8 tmpCtrl;
 824:.\Generated_Source\PSoC4/zigbee.c ****                 tmpCtrl = zigbee_CONTROL_REG & (uint8)~zigbee_CTRL_RXADDR_MODE_MASK;
 825:.\Generated_Source\PSoC4/zigbee.c ****                 tmpCtrl |= (uint8)(addressMode << zigbee_CTRL_RXADDR_MODE0_SHIFT);
 826:.\Generated_Source\PSoC4/zigbee.c ****                 zigbee_CONTROL_REG = tmpCtrl;
 827:.\Generated_Source\PSoC4/zigbee.c **** 
 828:.\Generated_Source\PSoC4/zigbee.c ****                 #if(zigbee_RX_INTERRUPT_ENABLED && \
 829:.\Generated_Source\PSoC4/zigbee.c ****                    (zigbee_RXBUFFERSIZE > zigbee_FIFO_LENGTH) )
 830:.\Generated_Source\PSoC4/zigbee.c ****                     zigbee_rxAddressMode = addressMode;
 831:.\Generated_Source\PSoC4/zigbee.c ****                     zigbee_rxAddressDetected = 0u;
 832:.\Generated_Source\PSoC4/zigbee.c ****                 #endif /* End zigbee_RXBUFFERSIZE > zigbee_FIFO_LENGTH*/
 833:.\Generated_Source\PSoC4/zigbee.c ****             #endif /* End zigbee_CONTROL_REG_REMOVED */
 834:.\Generated_Source\PSoC4/zigbee.c ****         #else /* zigbee_RXHW_ADDRESS_ENABLED */
 835:.\Generated_Source\PSoC4/zigbee.c ****             if(0u != addressMode)
 836:.\Generated_Source\PSoC4/zigbee.c ****             {
 837:.\Generated_Source\PSoC4/zigbee.c ****                 /* Suppress compiler warning */
 838:.\Generated_Source\PSoC4/zigbee.c ****             }
 839:.\Generated_Source\PSoC4/zigbee.c ****         #endif /* End zigbee_RXHW_ADDRESS_ENABLED */
 840:.\Generated_Source\PSoC4/zigbee.c ****     }
 841:.\Generated_Source\PSoC4/zigbee.c **** 
 842:.\Generated_Source\PSoC4/zigbee.c **** 
 843:.\Generated_Source\PSoC4/zigbee.c ****     /*******************************************************************************
 844:.\Generated_Source\PSoC4/zigbee.c ****     * Function Name: zigbee_SetRxAddress1
 845:.\Generated_Source\PSoC4/zigbee.c ****     ********************************************************************************
 846:.\Generated_Source\PSoC4/zigbee.c ****     *
 847:.\Generated_Source\PSoC4/zigbee.c ****     * Summary:
 848:.\Generated_Source\PSoC4/zigbee.c ****     *  Sets the first of two hardware-detectable receiver addresses.
 849:.\Generated_Source\PSoC4/zigbee.c ****     *
 850:.\Generated_Source\PSoC4/zigbee.c ****     * Parameters:
 851:.\Generated_Source\PSoC4/zigbee.c ****     *  address: Address #1 for hardware address detection.
 852:.\Generated_Source\PSoC4/zigbee.c ****     *
 853:.\Generated_Source\PSoC4/zigbee.c ****     * Return:
 854:.\Generated_Source\PSoC4/zigbee.c ****     *  None.
 855:.\Generated_Source\PSoC4/zigbee.c ****     *
 856:.\Generated_Source\PSoC4/zigbee.c ****     *******************************************************************************/
 857:.\Generated_Source\PSoC4/zigbee.c ****     void zigbee_SetRxAddress1(uint8 address) 
 858:.\Generated_Source\PSoC4/zigbee.c ****     {
ARM GAS  C:\Users\Dylan\AppData\Local\Temp\ccGZdebx.s 			page 20


 859:.\Generated_Source\PSoC4/zigbee.c ****         zigbee_RXADDRESS1_REG = address;
 860:.\Generated_Source\PSoC4/zigbee.c ****     }
 861:.\Generated_Source\PSoC4/zigbee.c **** 
 862:.\Generated_Source\PSoC4/zigbee.c **** 
 863:.\Generated_Source\PSoC4/zigbee.c ****     /*******************************************************************************
 864:.\Generated_Source\PSoC4/zigbee.c ****     * Function Name: zigbee_SetRxAddress2
 865:.\Generated_Source\PSoC4/zigbee.c ****     ********************************************************************************
 866:.\Generated_Source\PSoC4/zigbee.c ****     *
 867:.\Generated_Source\PSoC4/zigbee.c ****     * Summary:
 868:.\Generated_Source\PSoC4/zigbee.c ****     *  Sets the second of two hardware-detectable receiver addresses.
 869:.\Generated_Source\PSoC4/zigbee.c ****     *
 870:.\Generated_Source\PSoC4/zigbee.c ****     * Parameters:
 871:.\Generated_Source\PSoC4/zigbee.c ****     *  address: Address #2 for hardware address detection.
 872:.\Generated_Source\PSoC4/zigbee.c ****     *
 873:.\Generated_Source\PSoC4/zigbee.c ****     * Return:
 874:.\Generated_Source\PSoC4/zigbee.c ****     *  None.
 875:.\Generated_Source\PSoC4/zigbee.c ****     *
 876:.\Generated_Source\PSoC4/zigbee.c ****     *******************************************************************************/
 877:.\Generated_Source\PSoC4/zigbee.c ****     void zigbee_SetRxAddress2(uint8 address) 
 878:.\Generated_Source\PSoC4/zigbee.c ****     {
 879:.\Generated_Source\PSoC4/zigbee.c ****         zigbee_RXADDRESS2_REG = address;
 880:.\Generated_Source\PSoC4/zigbee.c ****     }
 881:.\Generated_Source\PSoC4/zigbee.c **** 
 882:.\Generated_Source\PSoC4/zigbee.c **** #endif  /* zigbee_RX_ENABLED || zigbee_HD_ENABLED*/
 883:.\Generated_Source\PSoC4/zigbee.c **** 
 884:.\Generated_Source\PSoC4/zigbee.c **** 
 885:.\Generated_Source\PSoC4/zigbee.c **** #if( (zigbee_TX_ENABLED) || (zigbee_HD_ENABLED) )
 886:.\Generated_Source\PSoC4/zigbee.c ****     /*******************************************************************************
 887:.\Generated_Source\PSoC4/zigbee.c ****     * Function Name: zigbee_SetTxInterruptMode
 888:.\Generated_Source\PSoC4/zigbee.c ****     ********************************************************************************
 889:.\Generated_Source\PSoC4/zigbee.c ****     *
 890:.\Generated_Source\PSoC4/zigbee.c ****     * Summary:
 891:.\Generated_Source\PSoC4/zigbee.c ****     *  Configures the TX interrupt sources to be enabled, but does not enable the
 892:.\Generated_Source\PSoC4/zigbee.c ****     *  interrupt.
 893:.\Generated_Source\PSoC4/zigbee.c ****     *
 894:.\Generated_Source\PSoC4/zigbee.c ****     * Parameters:
 895:.\Generated_Source\PSoC4/zigbee.c ****     *  intSrc: Bit field containing the TX interrupt sources to enable
 896:.\Generated_Source\PSoC4/zigbee.c ****     *   zigbee_TX_STS_COMPLETE        Interrupt on TX byte complete
 897:.\Generated_Source\PSoC4/zigbee.c ****     *   zigbee_TX_STS_FIFO_EMPTY      Interrupt when TX FIFO is empty
 898:.\Generated_Source\PSoC4/zigbee.c ****     *   zigbee_TX_STS_FIFO_FULL       Interrupt when TX FIFO is full
 899:.\Generated_Source\PSoC4/zigbee.c ****     *   zigbee_TX_STS_FIFO_NOT_FULL   Interrupt when TX FIFO is not full
 900:.\Generated_Source\PSoC4/zigbee.c ****     *
 901:.\Generated_Source\PSoC4/zigbee.c ****     * Return:
 902:.\Generated_Source\PSoC4/zigbee.c ****     *  None.
 903:.\Generated_Source\PSoC4/zigbee.c ****     *
 904:.\Generated_Source\PSoC4/zigbee.c ****     * Theory:
 905:.\Generated_Source\PSoC4/zigbee.c ****     *  Enables the output of specific status bits to the interrupt controller
 906:.\Generated_Source\PSoC4/zigbee.c ****     *
 907:.\Generated_Source\PSoC4/zigbee.c ****     *******************************************************************************/
 908:.\Generated_Source\PSoC4/zigbee.c ****     void zigbee_SetTxInterruptMode(uint8 intSrc) 
 909:.\Generated_Source\PSoC4/zigbee.c ****     {
 220              		.loc 1 909 0
 221              		.cfi_startproc
 222              	.LVL13:
 910:.\Generated_Source\PSoC4/zigbee.c ****         zigbee_TXSTATUS_MASK_REG = intSrc;
 223              		.loc 1 910 0
 224 0000 014B     		ldr	r3, .L17
ARM GAS  C:\Users\Dylan\AppData\Local\Temp\ccGZdebx.s 			page 21


 225 0002 1870     		strb	r0, [r3]
 911:.\Generated_Source\PSoC4/zigbee.c ****     }
 226              		.loc 1 911 0
 227              		@ sp needed
 228 0004 7047     		bx	lr
 229              	.L18:
 230 0006 C046     		.align	2
 231              	.L17:
 232 0008 83000F40 		.word	1074724995
 233              		.cfi_endproc
 234              	.LFE6:
 235              		.size	zigbee_SetTxInterruptMode, .-zigbee_SetTxInterruptMode
 236              		.section	.text.zigbee_WriteTxData,"ax",%progbits
 237              		.align	2
 238              		.global	zigbee_WriteTxData
 239              		.code	16
 240              		.thumb_func
 241              		.type	zigbee_WriteTxData, %function
 242              	zigbee_WriteTxData:
 243              	.LFB7:
 912:.\Generated_Source\PSoC4/zigbee.c **** 
 913:.\Generated_Source\PSoC4/zigbee.c **** 
 914:.\Generated_Source\PSoC4/zigbee.c ****     /*******************************************************************************
 915:.\Generated_Source\PSoC4/zigbee.c ****     * Function Name: zigbee_WriteTxData
 916:.\Generated_Source\PSoC4/zigbee.c ****     ********************************************************************************
 917:.\Generated_Source\PSoC4/zigbee.c ****     *
 918:.\Generated_Source\PSoC4/zigbee.c ****     * Summary:
 919:.\Generated_Source\PSoC4/zigbee.c ****     *  Places a byte of data into the transmit buffer to be sent when the bus is
 920:.\Generated_Source\PSoC4/zigbee.c ****     *  available without checking the TX status register. You must check status
 921:.\Generated_Source\PSoC4/zigbee.c ****     *  separately.
 922:.\Generated_Source\PSoC4/zigbee.c ****     *
 923:.\Generated_Source\PSoC4/zigbee.c ****     * Parameters:
 924:.\Generated_Source\PSoC4/zigbee.c ****     *  txDataByte: data byte
 925:.\Generated_Source\PSoC4/zigbee.c ****     *
 926:.\Generated_Source\PSoC4/zigbee.c ****     * Return:
 927:.\Generated_Source\PSoC4/zigbee.c ****     * None.
 928:.\Generated_Source\PSoC4/zigbee.c ****     *
 929:.\Generated_Source\PSoC4/zigbee.c ****     * Global Variables:
 930:.\Generated_Source\PSoC4/zigbee.c ****     *  zigbee_txBuffer - RAM buffer pointer for save data for transmission
 931:.\Generated_Source\PSoC4/zigbee.c ****     *  zigbee_txBufferWrite - cyclic index for write to txBuffer,
 932:.\Generated_Source\PSoC4/zigbee.c ****     *    incremented after each byte saved to buffer.
 933:.\Generated_Source\PSoC4/zigbee.c ****     *  zigbee_txBufferRead - cyclic index for read from txBuffer,
 934:.\Generated_Source\PSoC4/zigbee.c ****     *    checked to identify the condition to write to FIFO directly or to TX buffer
 935:.\Generated_Source\PSoC4/zigbee.c ****     *  zigbee_initVar - checked to identify that the component has been
 936:.\Generated_Source\PSoC4/zigbee.c ****     *    initialized.
 937:.\Generated_Source\PSoC4/zigbee.c ****     *
 938:.\Generated_Source\PSoC4/zigbee.c ****     * Reentrant:
 939:.\Generated_Source\PSoC4/zigbee.c ****     *  No.
 940:.\Generated_Source\PSoC4/zigbee.c ****     *
 941:.\Generated_Source\PSoC4/zigbee.c ****     *******************************************************************************/
 942:.\Generated_Source\PSoC4/zigbee.c ****     void zigbee_WriteTxData(uint8 txDataByte) 
 943:.\Generated_Source\PSoC4/zigbee.c ****     {
 244              		.loc 1 943 0
 245              		.cfi_startproc
 246              	.LVL14:
 944:.\Generated_Source\PSoC4/zigbee.c ****         /* If not Initialized then skip this function*/
 945:.\Generated_Source\PSoC4/zigbee.c ****         if(zigbee_initVar != 0u)
ARM GAS  C:\Users\Dylan\AppData\Local\Temp\ccGZdebx.s 			page 22


 247              		.loc 1 945 0
 248 0000 034B     		ldr	r3, .L21
 249 0002 1B78     		ldrb	r3, [r3]
 250 0004 002B     		cmp	r3, #0
 251 0006 01D0     		beq	.L19
 946:.\Generated_Source\PSoC4/zigbee.c ****         {
 947:.\Generated_Source\PSoC4/zigbee.c ****         #if (zigbee_TX_INTERRUPT_ENABLED)
 948:.\Generated_Source\PSoC4/zigbee.c **** 
 949:.\Generated_Source\PSoC4/zigbee.c ****             /* Protect variables that could change on interrupt. */
 950:.\Generated_Source\PSoC4/zigbee.c ****             zigbee_DisableTxInt();
 951:.\Generated_Source\PSoC4/zigbee.c **** 
 952:.\Generated_Source\PSoC4/zigbee.c ****             if( (zigbee_txBufferRead == zigbee_txBufferWrite) &&
 953:.\Generated_Source\PSoC4/zigbee.c ****                 ((zigbee_TXSTATUS_REG & zigbee_TX_STS_FIFO_FULL) == 0u) )
 954:.\Generated_Source\PSoC4/zigbee.c ****             {
 955:.\Generated_Source\PSoC4/zigbee.c ****                 /* Add directly to the FIFO. */
 956:.\Generated_Source\PSoC4/zigbee.c ****                 zigbee_TXDATA_REG = txDataByte;
 957:.\Generated_Source\PSoC4/zigbee.c ****             }
 958:.\Generated_Source\PSoC4/zigbee.c ****             else
 959:.\Generated_Source\PSoC4/zigbee.c ****             {
 960:.\Generated_Source\PSoC4/zigbee.c ****                 if(zigbee_txBufferWrite >= zigbee_TX_BUFFER_SIZE)
 961:.\Generated_Source\PSoC4/zigbee.c ****                 {
 962:.\Generated_Source\PSoC4/zigbee.c ****                     zigbee_txBufferWrite = 0u;
 963:.\Generated_Source\PSoC4/zigbee.c ****                 }
 964:.\Generated_Source\PSoC4/zigbee.c **** 
 965:.\Generated_Source\PSoC4/zigbee.c ****                 zigbee_txBuffer[zigbee_txBufferWrite] = txDataByte;
 966:.\Generated_Source\PSoC4/zigbee.c **** 
 967:.\Generated_Source\PSoC4/zigbee.c ****                 /* Add to the software buffer. */
 968:.\Generated_Source\PSoC4/zigbee.c ****                 zigbee_txBufferWrite++;
 969:.\Generated_Source\PSoC4/zigbee.c ****             }
 970:.\Generated_Source\PSoC4/zigbee.c **** 
 971:.\Generated_Source\PSoC4/zigbee.c ****             zigbee_EnableTxInt();
 972:.\Generated_Source\PSoC4/zigbee.c **** 
 973:.\Generated_Source\PSoC4/zigbee.c ****         #else
 974:.\Generated_Source\PSoC4/zigbee.c **** 
 975:.\Generated_Source\PSoC4/zigbee.c ****             /* Add directly to the FIFO. */
 976:.\Generated_Source\PSoC4/zigbee.c ****             zigbee_TXDATA_REG = txDataByte;
 252              		.loc 1 976 0
 253 0008 024B     		ldr	r3, .L21+4
 254 000a 1870     		strb	r0, [r3]
 255              	.L19:
 977:.\Generated_Source\PSoC4/zigbee.c **** 
 978:.\Generated_Source\PSoC4/zigbee.c ****         #endif /*(zigbee_TX_INTERRUPT_ENABLED) */
 979:.\Generated_Source\PSoC4/zigbee.c ****         }
 980:.\Generated_Source\PSoC4/zigbee.c ****     }
 256              		.loc 1 980 0
 257              		@ sp needed
 258 000c 7047     		bx	lr
 259              	.L22:
 260 000e C046     		.align	2
 261              	.L21:
 262 0010 00000000 		.word	.LANCHOR0
 263 0014 43000F40 		.word	1074724931
 264              		.cfi_endproc
 265              	.LFE7:
 266              		.size	zigbee_WriteTxData, .-zigbee_WriteTxData
 267              		.section	.text.zigbee_ReadTxStatus,"ax",%progbits
 268              		.align	2
ARM GAS  C:\Users\Dylan\AppData\Local\Temp\ccGZdebx.s 			page 23


 269              		.global	zigbee_ReadTxStatus
 270              		.code	16
 271              		.thumb_func
 272              		.type	zigbee_ReadTxStatus, %function
 273              	zigbee_ReadTxStatus:
 274              	.LFB8:
 981:.\Generated_Source\PSoC4/zigbee.c **** 
 982:.\Generated_Source\PSoC4/zigbee.c **** 
 983:.\Generated_Source\PSoC4/zigbee.c ****     /*******************************************************************************
 984:.\Generated_Source\PSoC4/zigbee.c ****     * Function Name: zigbee_ReadTxStatus
 985:.\Generated_Source\PSoC4/zigbee.c ****     ********************************************************************************
 986:.\Generated_Source\PSoC4/zigbee.c ****     *
 987:.\Generated_Source\PSoC4/zigbee.c ****     * Summary:
 988:.\Generated_Source\PSoC4/zigbee.c ****     *  Reads the status register for the TX portion of the UART.
 989:.\Generated_Source\PSoC4/zigbee.c ****     *
 990:.\Generated_Source\PSoC4/zigbee.c ****     * Parameters:
 991:.\Generated_Source\PSoC4/zigbee.c ****     *  None.
 992:.\Generated_Source\PSoC4/zigbee.c ****     *
 993:.\Generated_Source\PSoC4/zigbee.c ****     * Return:
 994:.\Generated_Source\PSoC4/zigbee.c ****     *  Contents of the status register
 995:.\Generated_Source\PSoC4/zigbee.c ****     *
 996:.\Generated_Source\PSoC4/zigbee.c ****     * Theory:
 997:.\Generated_Source\PSoC4/zigbee.c ****     *  This function reads the TX status register, which is cleared on read.
 998:.\Generated_Source\PSoC4/zigbee.c ****     *  It is up to the user to handle all bits in this return value accordingly,
 999:.\Generated_Source\PSoC4/zigbee.c ****     *  even if the bit was not enabled as an interrupt source the event happened
1000:.\Generated_Source\PSoC4/zigbee.c ****     *  and must be handled accordingly.
1001:.\Generated_Source\PSoC4/zigbee.c ****     *
1002:.\Generated_Source\PSoC4/zigbee.c ****     *******************************************************************************/
1003:.\Generated_Source\PSoC4/zigbee.c ****     uint8 zigbee_ReadTxStatus(void) 
1004:.\Generated_Source\PSoC4/zigbee.c ****     {
 275              		.loc 1 1004 0
 276              		.cfi_startproc
1005:.\Generated_Source\PSoC4/zigbee.c ****         return(zigbee_TXSTATUS_REG);
 277              		.loc 1 1005 0
 278 0000 014B     		ldr	r3, .L24
 279 0002 1878     		ldrb	r0, [r3]
 280 0004 C0B2     		uxtb	r0, r0
1006:.\Generated_Source\PSoC4/zigbee.c ****     }
 281              		.loc 1 1006 0
 282              		@ sp needed
 283 0006 7047     		bx	lr
 284              	.L25:
 285              		.align	2
 286              	.L24:
 287 0008 63000F40 		.word	1074724963
 288              		.cfi_endproc
 289              	.LFE8:
 290              		.size	zigbee_ReadTxStatus, .-zigbee_ReadTxStatus
 291              		.section	.text.zigbee_PutChar,"ax",%progbits
 292              		.align	2
 293              		.global	zigbee_PutChar
 294              		.code	16
 295              		.thumb_func
 296              		.type	zigbee_PutChar, %function
 297              	zigbee_PutChar:
 298              	.LFB9:
1007:.\Generated_Source\PSoC4/zigbee.c **** 
ARM GAS  C:\Users\Dylan\AppData\Local\Temp\ccGZdebx.s 			page 24


1008:.\Generated_Source\PSoC4/zigbee.c **** 
1009:.\Generated_Source\PSoC4/zigbee.c ****     /*******************************************************************************
1010:.\Generated_Source\PSoC4/zigbee.c ****     * Function Name: zigbee_PutChar
1011:.\Generated_Source\PSoC4/zigbee.c ****     ********************************************************************************
1012:.\Generated_Source\PSoC4/zigbee.c ****     *
1013:.\Generated_Source\PSoC4/zigbee.c ****     * Summary:
1014:.\Generated_Source\PSoC4/zigbee.c ****     *  Puts a byte of data into the transmit buffer to be sent when the bus is
1015:.\Generated_Source\PSoC4/zigbee.c ****     *  available. This is a blocking API that waits until the TX buffer has room to
1016:.\Generated_Source\PSoC4/zigbee.c ****     *  hold the data.
1017:.\Generated_Source\PSoC4/zigbee.c ****     *
1018:.\Generated_Source\PSoC4/zigbee.c ****     * Parameters:
1019:.\Generated_Source\PSoC4/zigbee.c ****     *  txDataByte: Byte containing the data to transmit
1020:.\Generated_Source\PSoC4/zigbee.c ****     *
1021:.\Generated_Source\PSoC4/zigbee.c ****     * Return:
1022:.\Generated_Source\PSoC4/zigbee.c ****     *  None.
1023:.\Generated_Source\PSoC4/zigbee.c ****     *
1024:.\Generated_Source\PSoC4/zigbee.c ****     * Global Variables:
1025:.\Generated_Source\PSoC4/zigbee.c ****     *  zigbee_txBuffer - RAM buffer pointer for save data for transmission
1026:.\Generated_Source\PSoC4/zigbee.c ****     *  zigbee_txBufferWrite - cyclic index for write to txBuffer,
1027:.\Generated_Source\PSoC4/zigbee.c ****     *     checked to identify free space in txBuffer and incremented after each byte
1028:.\Generated_Source\PSoC4/zigbee.c ****     *     saved to buffer.
1029:.\Generated_Source\PSoC4/zigbee.c ****     *  zigbee_txBufferRead - cyclic index for read from txBuffer,
1030:.\Generated_Source\PSoC4/zigbee.c ****     *     checked to identify free space in txBuffer.
1031:.\Generated_Source\PSoC4/zigbee.c ****     *  zigbee_initVar - checked to identify that the component has been
1032:.\Generated_Source\PSoC4/zigbee.c ****     *     initialized.
1033:.\Generated_Source\PSoC4/zigbee.c ****     *
1034:.\Generated_Source\PSoC4/zigbee.c ****     * Reentrant:
1035:.\Generated_Source\PSoC4/zigbee.c ****     *  No.
1036:.\Generated_Source\PSoC4/zigbee.c ****     *
1037:.\Generated_Source\PSoC4/zigbee.c ****     * Theory:
1038:.\Generated_Source\PSoC4/zigbee.c ****     *  Allows the user to transmit any byte of data in a single transfer
1039:.\Generated_Source\PSoC4/zigbee.c ****     *
1040:.\Generated_Source\PSoC4/zigbee.c ****     *******************************************************************************/
1041:.\Generated_Source\PSoC4/zigbee.c ****     void zigbee_PutChar(uint8 txDataByte) 
1042:.\Generated_Source\PSoC4/zigbee.c ****     {
 299              		.loc 1 1042 0
 300              		.cfi_startproc
 301              	.LVL15:
 302              	.L27:
1043:.\Generated_Source\PSoC4/zigbee.c ****     #if (zigbee_TX_INTERRUPT_ENABLED)
1044:.\Generated_Source\PSoC4/zigbee.c ****         /* The temporary output pointer is used since it takes two instructions
1045:.\Generated_Source\PSoC4/zigbee.c ****         *  to increment with a wrap, and we can't risk doing that with the real
1046:.\Generated_Source\PSoC4/zigbee.c ****         *  pointer and getting an interrupt in between instructions.
1047:.\Generated_Source\PSoC4/zigbee.c ****         */
1048:.\Generated_Source\PSoC4/zigbee.c ****         uint8 locTxBufferWrite;
1049:.\Generated_Source\PSoC4/zigbee.c ****         uint8 locTxBufferRead;
1050:.\Generated_Source\PSoC4/zigbee.c **** 
1051:.\Generated_Source\PSoC4/zigbee.c ****         do
1052:.\Generated_Source\PSoC4/zigbee.c ****         { /* Block if software buffer is full, so we don't overwrite. */
1053:.\Generated_Source\PSoC4/zigbee.c **** 
1054:.\Generated_Source\PSoC4/zigbee.c ****         #if ((zigbee_TX_BUFFER_SIZE > zigbee_MAX_BYTE_VALUE) && (CY_PSOC3))
1055:.\Generated_Source\PSoC4/zigbee.c ****             /* Disable TX interrupt to protect variables from modification */
1056:.\Generated_Source\PSoC4/zigbee.c ****             zigbee_DisableTxInt();
1057:.\Generated_Source\PSoC4/zigbee.c ****         #endif /* (zigbee_TX_BUFFER_SIZE > zigbee_MAX_BYTE_VALUE) && (CY_PSOC3) */
1058:.\Generated_Source\PSoC4/zigbee.c **** 
1059:.\Generated_Source\PSoC4/zigbee.c ****             locTxBufferWrite = zigbee_txBufferWrite;
1060:.\Generated_Source\PSoC4/zigbee.c ****             locTxBufferRead  = zigbee_txBufferRead;
ARM GAS  C:\Users\Dylan\AppData\Local\Temp\ccGZdebx.s 			page 25


1061:.\Generated_Source\PSoC4/zigbee.c **** 
1062:.\Generated_Source\PSoC4/zigbee.c ****         #if ((zigbee_TX_BUFFER_SIZE > zigbee_MAX_BYTE_VALUE) && (CY_PSOC3))
1063:.\Generated_Source\PSoC4/zigbee.c ****             /* Enable interrupt to continue transmission */
1064:.\Generated_Source\PSoC4/zigbee.c ****             zigbee_EnableTxInt();
1065:.\Generated_Source\PSoC4/zigbee.c ****         #endif /* (zigbee_TX_BUFFER_SIZE > zigbee_MAX_BYTE_VALUE) && (CY_PSOC3) */
1066:.\Generated_Source\PSoC4/zigbee.c ****         }
1067:.\Generated_Source\PSoC4/zigbee.c ****         while( (locTxBufferWrite < locTxBufferRead) ? (locTxBufferWrite == (locTxBufferRead - 1u)) 
1068:.\Generated_Source\PSoC4/zigbee.c ****                                 ((locTxBufferWrite - locTxBufferRead) ==
1069:.\Generated_Source\PSoC4/zigbee.c ****                                 (uint8)(zigbee_TX_BUFFER_SIZE - 1u)) );
1070:.\Generated_Source\PSoC4/zigbee.c **** 
1071:.\Generated_Source\PSoC4/zigbee.c ****         if( (locTxBufferRead == locTxBufferWrite) &&
1072:.\Generated_Source\PSoC4/zigbee.c ****             ((zigbee_TXSTATUS_REG & zigbee_TX_STS_FIFO_FULL) == 0u) )
1073:.\Generated_Source\PSoC4/zigbee.c ****         {
1074:.\Generated_Source\PSoC4/zigbee.c ****             /* Add directly to the FIFO */
1075:.\Generated_Source\PSoC4/zigbee.c ****             zigbee_TXDATA_REG = txDataByte;
1076:.\Generated_Source\PSoC4/zigbee.c ****         }
1077:.\Generated_Source\PSoC4/zigbee.c ****         else
1078:.\Generated_Source\PSoC4/zigbee.c ****         {
1079:.\Generated_Source\PSoC4/zigbee.c ****             if(locTxBufferWrite >= zigbee_TX_BUFFER_SIZE)
1080:.\Generated_Source\PSoC4/zigbee.c ****             {
1081:.\Generated_Source\PSoC4/zigbee.c ****                 locTxBufferWrite = 0u;
1082:.\Generated_Source\PSoC4/zigbee.c ****             }
1083:.\Generated_Source\PSoC4/zigbee.c ****             /* Add to the software buffer. */
1084:.\Generated_Source\PSoC4/zigbee.c ****             zigbee_txBuffer[locTxBufferWrite] = txDataByte;
1085:.\Generated_Source\PSoC4/zigbee.c ****             locTxBufferWrite++;
1086:.\Generated_Source\PSoC4/zigbee.c **** 
1087:.\Generated_Source\PSoC4/zigbee.c ****             /* Finally, update the real output pointer */
1088:.\Generated_Source\PSoC4/zigbee.c ****         #if ((zigbee_TX_BUFFER_SIZE > zigbee_MAX_BYTE_VALUE) && (CY_PSOC3))
1089:.\Generated_Source\PSoC4/zigbee.c ****             zigbee_DisableTxInt();
1090:.\Generated_Source\PSoC4/zigbee.c ****         #endif /* (zigbee_TX_BUFFER_SIZE > zigbee_MAX_BYTE_VALUE) && (CY_PSOC3) */
1091:.\Generated_Source\PSoC4/zigbee.c **** 
1092:.\Generated_Source\PSoC4/zigbee.c ****             zigbee_txBufferWrite = locTxBufferWrite;
1093:.\Generated_Source\PSoC4/zigbee.c **** 
1094:.\Generated_Source\PSoC4/zigbee.c ****         #if ((zigbee_TX_BUFFER_SIZE > zigbee_MAX_BYTE_VALUE) && (CY_PSOC3))
1095:.\Generated_Source\PSoC4/zigbee.c ****             zigbee_EnableTxInt();
1096:.\Generated_Source\PSoC4/zigbee.c ****         #endif /* (zigbee_TX_BUFFER_SIZE > zigbee_MAX_BYTE_VALUE) && (CY_PSOC3) */
1097:.\Generated_Source\PSoC4/zigbee.c **** 
1098:.\Generated_Source\PSoC4/zigbee.c ****             if(0u != (zigbee_TXSTATUS_REG & zigbee_TX_STS_FIFO_EMPTY))
1099:.\Generated_Source\PSoC4/zigbee.c ****             {
1100:.\Generated_Source\PSoC4/zigbee.c ****                 /* Trigger TX interrupt to send software buffer */
1101:.\Generated_Source\PSoC4/zigbee.c ****                 zigbee_SetPendingTxInt();
1102:.\Generated_Source\PSoC4/zigbee.c ****             }
1103:.\Generated_Source\PSoC4/zigbee.c ****         }
1104:.\Generated_Source\PSoC4/zigbee.c **** 
1105:.\Generated_Source\PSoC4/zigbee.c ****     #else
1106:.\Generated_Source\PSoC4/zigbee.c **** 
1107:.\Generated_Source\PSoC4/zigbee.c ****         while((zigbee_TXSTATUS_REG & zigbee_TX_STS_FIFO_FULL) != 0u)
 303              		.loc 1 1107 0 discriminator 1
 304 0000 034B     		ldr	r3, .L28
 305 0002 1B78     		ldrb	r3, [r3]
 306 0004 5B07     		lsl	r3, r3, #29
 307 0006 FBD4     		bmi	.L27
1108:.\Generated_Source\PSoC4/zigbee.c ****         {
1109:.\Generated_Source\PSoC4/zigbee.c ****             /* Wait for room in the FIFO */
1110:.\Generated_Source\PSoC4/zigbee.c ****         }
1111:.\Generated_Source\PSoC4/zigbee.c **** 
1112:.\Generated_Source\PSoC4/zigbee.c ****         /* Add directly to the FIFO */
ARM GAS  C:\Users\Dylan\AppData\Local\Temp\ccGZdebx.s 			page 26


1113:.\Generated_Source\PSoC4/zigbee.c ****         zigbee_TXDATA_REG = txDataByte;
 308              		.loc 1 1113 0
 309 0008 024B     		ldr	r3, .L28+4
 310 000a 1870     		strb	r0, [r3]
1114:.\Generated_Source\PSoC4/zigbee.c **** 
1115:.\Generated_Source\PSoC4/zigbee.c ****     #endif /* zigbee_TX_INTERRUPT_ENABLED */
1116:.\Generated_Source\PSoC4/zigbee.c ****     }
 311              		.loc 1 1116 0
 312              		@ sp needed
 313 000c 7047     		bx	lr
 314              	.L29:
 315 000e C046     		.align	2
 316              	.L28:
 317 0010 63000F40 		.word	1074724963
 318 0014 43000F40 		.word	1074724931
 319              		.cfi_endproc
 320              	.LFE9:
 321              		.size	zigbee_PutChar, .-zigbee_PutChar
 322              		.section	.text.zigbee_PutString,"ax",%progbits
 323              		.align	2
 324              		.global	zigbee_PutString
 325              		.code	16
 326              		.thumb_func
 327              		.type	zigbee_PutString, %function
 328              	zigbee_PutString:
 329              	.LFB10:
1117:.\Generated_Source\PSoC4/zigbee.c **** 
1118:.\Generated_Source\PSoC4/zigbee.c **** 
1119:.\Generated_Source\PSoC4/zigbee.c ****     /*******************************************************************************
1120:.\Generated_Source\PSoC4/zigbee.c ****     * Function Name: zigbee_PutString
1121:.\Generated_Source\PSoC4/zigbee.c ****     ********************************************************************************
1122:.\Generated_Source\PSoC4/zigbee.c ****     *
1123:.\Generated_Source\PSoC4/zigbee.c ****     * Summary:
1124:.\Generated_Source\PSoC4/zigbee.c ****     *  Sends a NULL terminated string to the TX buffer for transmission.
1125:.\Generated_Source\PSoC4/zigbee.c ****     *
1126:.\Generated_Source\PSoC4/zigbee.c ****     * Parameters:
1127:.\Generated_Source\PSoC4/zigbee.c ****     *  string[]: Pointer to the null terminated string array residing in RAM or ROM
1128:.\Generated_Source\PSoC4/zigbee.c ****     *
1129:.\Generated_Source\PSoC4/zigbee.c ****     * Return:
1130:.\Generated_Source\PSoC4/zigbee.c ****     *  None.
1131:.\Generated_Source\PSoC4/zigbee.c ****     *
1132:.\Generated_Source\PSoC4/zigbee.c ****     * Global Variables:
1133:.\Generated_Source\PSoC4/zigbee.c ****     *  zigbee_initVar - checked to identify that the component has been
1134:.\Generated_Source\PSoC4/zigbee.c ****     *     initialized.
1135:.\Generated_Source\PSoC4/zigbee.c ****     *
1136:.\Generated_Source\PSoC4/zigbee.c ****     * Reentrant:
1137:.\Generated_Source\PSoC4/zigbee.c ****     *  No.
1138:.\Generated_Source\PSoC4/zigbee.c ****     *
1139:.\Generated_Source\PSoC4/zigbee.c ****     * Theory:
1140:.\Generated_Source\PSoC4/zigbee.c ****     *  If there is not enough memory in the TX buffer for the entire string, this
1141:.\Generated_Source\PSoC4/zigbee.c ****     *  function blocks until the last character of the string is loaded into the
1142:.\Generated_Source\PSoC4/zigbee.c ****     *  TX buffer.
1143:.\Generated_Source\PSoC4/zigbee.c ****     *
1144:.\Generated_Source\PSoC4/zigbee.c ****     *******************************************************************************/
1145:.\Generated_Source\PSoC4/zigbee.c ****     void zigbee_PutString(const char8 string[]) 
1146:.\Generated_Source\PSoC4/zigbee.c ****     {
 330              		.loc 1 1146 0
ARM GAS  C:\Users\Dylan\AppData\Local\Temp\ccGZdebx.s 			page 27


 331              		.cfi_startproc
 332              	.LVL16:
 333 0000 38B5     		push	{r3, r4, r5, lr}
 334              		.cfi_def_cfa_offset 16
 335              		.cfi_offset 3, -16
 336              		.cfi_offset 4, -12
 337              		.cfi_offset 5, -8
 338              		.cfi_offset 14, -4
 339              	.LVL17:
1147:.\Generated_Source\PSoC4/zigbee.c ****         uint16 bufIndex = 0u;
1148:.\Generated_Source\PSoC4/zigbee.c **** 
1149:.\Generated_Source\PSoC4/zigbee.c ****         /* If not Initialized then skip this function */
1150:.\Generated_Source\PSoC4/zigbee.c ****         if(zigbee_initVar != 0u)
 340              		.loc 1 1150 0
 341 0002 084B     		ldr	r3, .L35
 342 0004 1B78     		ldrb	r3, [r3]
 343 0006 002B     		cmp	r3, #0
 344 0008 05D1     		bne	.L34
 345 000a 09E0     		b	.L30
 346              	.LVL18:
 347              	.L33:
1151:.\Generated_Source\PSoC4/zigbee.c ****         {
1152:.\Generated_Source\PSoC4/zigbee.c ****             /* This is a blocking function, it will not exit until all data is sent */
1153:.\Generated_Source\PSoC4/zigbee.c ****             while(string[bufIndex] != (char8) 0)
1154:.\Generated_Source\PSoC4/zigbee.c ****             {
1155:.\Generated_Source\PSoC4/zigbee.c ****                 zigbee_PutChar((uint8)string[bufIndex]);
 348              		.loc 1 1155 0
 349 000c FFF7FEFF 		bl	zigbee_PutChar
 350              	.LVL19:
1156:.\Generated_Source\PSoC4/zigbee.c ****                 bufIndex++;
 351              		.loc 1 1156 0
 352 0010 0134     		add	r4, r4, #1
 353              	.LVL20:
 354 0012 A4B2     		uxth	r4, r4
 355              	.LVL21:
 356 0014 01E0     		b	.L31
 357              	.LVL22:
 358              	.L34:
 359 0016 051C     		mov	r5, r0
 360 0018 0024     		mov	r4, #0
 361              	.LVL23:
 362              	.L31:
1153:.\Generated_Source\PSoC4/zigbee.c ****             {
 363              		.loc 1 1153 0
 364 001a 285D     		ldrb	r0, [r5, r4]
 365 001c 0028     		cmp	r0, #0
 366 001e F5D1     		bne	.L33
 367              	.LVL24:
 368              	.L30:
1157:.\Generated_Source\PSoC4/zigbee.c ****             }
1158:.\Generated_Source\PSoC4/zigbee.c ****         }
1159:.\Generated_Source\PSoC4/zigbee.c ****     }
 369              		.loc 1 1159 0
 370              		@ sp needed
 371 0020 38BD     		pop	{r3, r4, r5, pc}
 372              	.L36:
 373 0022 C046     		.align	2
ARM GAS  C:\Users\Dylan\AppData\Local\Temp\ccGZdebx.s 			page 28


 374              	.L35:
 375 0024 00000000 		.word	.LANCHOR0
 376              		.cfi_endproc
 377              	.LFE10:
 378              		.size	zigbee_PutString, .-zigbee_PutString
 379              		.section	.text.zigbee_PutArray,"ax",%progbits
 380              		.align	2
 381              		.global	zigbee_PutArray
 382              		.code	16
 383              		.thumb_func
 384              		.type	zigbee_PutArray, %function
 385              	zigbee_PutArray:
 386              	.LFB11:
1160:.\Generated_Source\PSoC4/zigbee.c **** 
1161:.\Generated_Source\PSoC4/zigbee.c **** 
1162:.\Generated_Source\PSoC4/zigbee.c ****     /*******************************************************************************
1163:.\Generated_Source\PSoC4/zigbee.c ****     * Function Name: zigbee_PutArray
1164:.\Generated_Source\PSoC4/zigbee.c ****     ********************************************************************************
1165:.\Generated_Source\PSoC4/zigbee.c ****     *
1166:.\Generated_Source\PSoC4/zigbee.c ****     * Summary:
1167:.\Generated_Source\PSoC4/zigbee.c ****     *  Places N bytes of data from a memory array into the TX buffer for
1168:.\Generated_Source\PSoC4/zigbee.c ****     *  transmission.
1169:.\Generated_Source\PSoC4/zigbee.c ****     *
1170:.\Generated_Source\PSoC4/zigbee.c ****     * Parameters:
1171:.\Generated_Source\PSoC4/zigbee.c ****     *  string[]: Address of the memory array residing in RAM or ROM.
1172:.\Generated_Source\PSoC4/zigbee.c ****     *  byteCount: Number of bytes to be transmitted. The type depends on TX Buffer
1173:.\Generated_Source\PSoC4/zigbee.c ****     *             Size parameter.
1174:.\Generated_Source\PSoC4/zigbee.c ****     *
1175:.\Generated_Source\PSoC4/zigbee.c ****     * Return:
1176:.\Generated_Source\PSoC4/zigbee.c ****     *  None.
1177:.\Generated_Source\PSoC4/zigbee.c ****     *
1178:.\Generated_Source\PSoC4/zigbee.c ****     * Global Variables:
1179:.\Generated_Source\PSoC4/zigbee.c ****     *  zigbee_initVar - checked to identify that the component has been
1180:.\Generated_Source\PSoC4/zigbee.c ****     *     initialized.
1181:.\Generated_Source\PSoC4/zigbee.c ****     *
1182:.\Generated_Source\PSoC4/zigbee.c ****     * Reentrant:
1183:.\Generated_Source\PSoC4/zigbee.c ****     *  No.
1184:.\Generated_Source\PSoC4/zigbee.c ****     *
1185:.\Generated_Source\PSoC4/zigbee.c ****     * Theory:
1186:.\Generated_Source\PSoC4/zigbee.c ****     *  If there is not enough memory in the TX buffer for the entire string, this
1187:.\Generated_Source\PSoC4/zigbee.c ****     *  function blocks until the last character of the string is loaded into the
1188:.\Generated_Source\PSoC4/zigbee.c ****     *  TX buffer.
1189:.\Generated_Source\PSoC4/zigbee.c ****     *
1190:.\Generated_Source\PSoC4/zigbee.c ****     *******************************************************************************/
1191:.\Generated_Source\PSoC4/zigbee.c ****     void zigbee_PutArray(const uint8 string[], uint8 byteCount)
1192:.\Generated_Source\PSoC4/zigbee.c ****                                                                     
1193:.\Generated_Source\PSoC4/zigbee.c ****     {
 387              		.loc 1 1193 0
 388              		.cfi_startproc
 389              	.LVL25:
 390 0000 70B5     		push	{r4, r5, r6, lr}
 391              		.cfi_def_cfa_offset 16
 392              		.cfi_offset 4, -16
 393              		.cfi_offset 5, -12
 394              		.cfi_offset 6, -8
 395              		.cfi_offset 14, -4
 396              	.LVL26:
ARM GAS  C:\Users\Dylan\AppData\Local\Temp\ccGZdebx.s 			page 29


1194:.\Generated_Source\PSoC4/zigbee.c ****         uint8 bufIndex = 0u;
1195:.\Generated_Source\PSoC4/zigbee.c **** 
1196:.\Generated_Source\PSoC4/zigbee.c ****         /* If not Initialized then skip this function */
1197:.\Generated_Source\PSoC4/zigbee.c ****         if(zigbee_initVar != 0u)
 397              		.loc 1 1197 0
 398 0002 084B     		ldr	r3, .L42
 399 0004 1B78     		ldrb	r3, [r3]
 400 0006 002B     		cmp	r3, #0
 401 0008 06D1     		bne	.L41
 402 000a 0AE0     		b	.L37
 403              	.LVL27:
 404              	.L40:
1198:.\Generated_Source\PSoC4/zigbee.c ****         {
1199:.\Generated_Source\PSoC4/zigbee.c ****             while(bufIndex < byteCount)
1200:.\Generated_Source\PSoC4/zigbee.c ****             {
1201:.\Generated_Source\PSoC4/zigbee.c ****                 zigbee_PutChar(string[bufIndex]);
 405              		.loc 1 1201 0
 406 000c 305D     		ldrb	r0, [r6, r4]
 407 000e FFF7FEFF 		bl	zigbee_PutChar
 408              	.LVL28:
1202:.\Generated_Source\PSoC4/zigbee.c ****                 bufIndex++;
 409              		.loc 1 1202 0
 410 0012 0134     		add	r4, r4, #1
 411              	.LVL29:
 412 0014 E4B2     		uxtb	r4, r4
 413              	.LVL30:
 414 0016 02E0     		b	.L38
 415              	.LVL31:
 416              	.L41:
 417 0018 0D1C     		mov	r5, r1
 418 001a 061C     		mov	r6, r0
 419 001c 0024     		mov	r4, #0
 420              	.LVL32:
 421              	.L38:
1199:.\Generated_Source\PSoC4/zigbee.c ****             {
 422              		.loc 1 1199 0
 423 001e AC42     		cmp	r4, r5
 424 0020 F4D3     		bcc	.L40
 425              	.LVL33:
 426              	.L37:
1203:.\Generated_Source\PSoC4/zigbee.c ****             }
1204:.\Generated_Source\PSoC4/zigbee.c ****         }
1205:.\Generated_Source\PSoC4/zigbee.c ****     }
 427              		.loc 1 1205 0
 428              		@ sp needed
 429 0022 70BD     		pop	{r4, r5, r6, pc}
 430              	.L43:
 431              		.align	2
 432              	.L42:
 433 0024 00000000 		.word	.LANCHOR0
 434              		.cfi_endproc
 435              	.LFE11:
 436              		.size	zigbee_PutArray, .-zigbee_PutArray
 437              		.section	.text.zigbee_PutCRLF,"ax",%progbits
 438              		.align	2
 439              		.global	zigbee_PutCRLF
 440              		.code	16
ARM GAS  C:\Users\Dylan\AppData\Local\Temp\ccGZdebx.s 			page 30


 441              		.thumb_func
 442              		.type	zigbee_PutCRLF, %function
 443              	zigbee_PutCRLF:
 444              	.LFB12:
1206:.\Generated_Source\PSoC4/zigbee.c **** 
1207:.\Generated_Source\PSoC4/zigbee.c **** 
1208:.\Generated_Source\PSoC4/zigbee.c ****     /*******************************************************************************
1209:.\Generated_Source\PSoC4/zigbee.c ****     * Function Name: zigbee_PutCRLF
1210:.\Generated_Source\PSoC4/zigbee.c ****     ********************************************************************************
1211:.\Generated_Source\PSoC4/zigbee.c ****     *
1212:.\Generated_Source\PSoC4/zigbee.c ****     * Summary:
1213:.\Generated_Source\PSoC4/zigbee.c ****     *  Writes a byte of data followed by a carriage return (0x0D) and line feed
1214:.\Generated_Source\PSoC4/zigbee.c ****     *  (0x0A) to the transmit buffer.
1215:.\Generated_Source\PSoC4/zigbee.c ****     *
1216:.\Generated_Source\PSoC4/zigbee.c ****     * Parameters:
1217:.\Generated_Source\PSoC4/zigbee.c ****     *  txDataByte: Data byte to transmit before the carriage return and line feed.
1218:.\Generated_Source\PSoC4/zigbee.c ****     *
1219:.\Generated_Source\PSoC4/zigbee.c ****     * Return:
1220:.\Generated_Source\PSoC4/zigbee.c ****     *  None.
1221:.\Generated_Source\PSoC4/zigbee.c ****     *
1222:.\Generated_Source\PSoC4/zigbee.c ****     * Global Variables:
1223:.\Generated_Source\PSoC4/zigbee.c ****     *  zigbee_initVar - checked to identify that the component has been
1224:.\Generated_Source\PSoC4/zigbee.c ****     *     initialized.
1225:.\Generated_Source\PSoC4/zigbee.c ****     *
1226:.\Generated_Source\PSoC4/zigbee.c ****     * Reentrant:
1227:.\Generated_Source\PSoC4/zigbee.c ****     *  No.
1228:.\Generated_Source\PSoC4/zigbee.c ****     *
1229:.\Generated_Source\PSoC4/zigbee.c ****     *******************************************************************************/
1230:.\Generated_Source\PSoC4/zigbee.c ****     void zigbee_PutCRLF(uint8 txDataByte) 
1231:.\Generated_Source\PSoC4/zigbee.c ****     {
 445              		.loc 1 1231 0
 446              		.cfi_startproc
 447              	.LVL34:
 448 0000 08B5     		push	{r3, lr}
 449              		.cfi_def_cfa_offset 8
 450              		.cfi_offset 3, -8
 451              		.cfi_offset 14, -4
1232:.\Generated_Source\PSoC4/zigbee.c ****         /* If not Initialized then skip this function */
1233:.\Generated_Source\PSoC4/zigbee.c ****         if(zigbee_initVar != 0u)
 452              		.loc 1 1233 0
 453 0002 064B     		ldr	r3, .L46
 454 0004 1B78     		ldrb	r3, [r3]
 455 0006 002B     		cmp	r3, #0
 456 0008 07D0     		beq	.L44
1234:.\Generated_Source\PSoC4/zigbee.c ****         {
1235:.\Generated_Source\PSoC4/zigbee.c ****             zigbee_PutChar(txDataByte);
 457              		.loc 1 1235 0
 458 000a FFF7FEFF 		bl	zigbee_PutChar
 459              	.LVL35:
1236:.\Generated_Source\PSoC4/zigbee.c ****             zigbee_PutChar(0x0Du);
 460              		.loc 1 1236 0
 461 000e 0D20     		mov	r0, #13
 462 0010 FFF7FEFF 		bl	zigbee_PutChar
 463              	.LVL36:
1237:.\Generated_Source\PSoC4/zigbee.c ****             zigbee_PutChar(0x0Au);
 464              		.loc 1 1237 0
 465 0014 0A20     		mov	r0, #10
ARM GAS  C:\Users\Dylan\AppData\Local\Temp\ccGZdebx.s 			page 31


 466 0016 FFF7FEFF 		bl	zigbee_PutChar
 467              	.LVL37:
 468              	.L44:
1238:.\Generated_Source\PSoC4/zigbee.c ****         }
1239:.\Generated_Source\PSoC4/zigbee.c ****     }
 469              		.loc 1 1239 0
 470              		@ sp needed
 471 001a 08BD     		pop	{r3, pc}
 472              	.L47:
 473              		.align	2
 474              	.L46:
 475 001c 00000000 		.word	.LANCHOR0
 476              		.cfi_endproc
 477              	.LFE12:
 478              		.size	zigbee_PutCRLF, .-zigbee_PutCRLF
 479              		.section	.text.zigbee_GetTxBufferSize,"ax",%progbits
 480              		.align	2
 481              		.global	zigbee_GetTxBufferSize
 482              		.code	16
 483              		.thumb_func
 484              		.type	zigbee_GetTxBufferSize, %function
 485              	zigbee_GetTxBufferSize:
 486              	.LFB13:
1240:.\Generated_Source\PSoC4/zigbee.c **** 
1241:.\Generated_Source\PSoC4/zigbee.c **** 
1242:.\Generated_Source\PSoC4/zigbee.c ****     /*******************************************************************************
1243:.\Generated_Source\PSoC4/zigbee.c ****     * Function Name: zigbee_GetTxBufferSize
1244:.\Generated_Source\PSoC4/zigbee.c ****     ********************************************************************************
1245:.\Generated_Source\PSoC4/zigbee.c ****     *
1246:.\Generated_Source\PSoC4/zigbee.c ****     * Summary:
1247:.\Generated_Source\PSoC4/zigbee.c ****     *  Returns the number of bytes in the TX buffer which are waiting to be 
1248:.\Generated_Source\PSoC4/zigbee.c ****     *  transmitted.
1249:.\Generated_Source\PSoC4/zigbee.c ****     *  * TX software buffer is disabled (TX Buffer Size parameter is equal to 4): 
1250:.\Generated_Source\PSoC4/zigbee.c ****     *    returns 0 for empty TX FIFO, 1 for not full TX FIFO or 4 for full TX FIFO.
1251:.\Generated_Source\PSoC4/zigbee.c ****     *  * TX software buffer is enabled: returns the number of bytes in the TX 
1252:.\Generated_Source\PSoC4/zigbee.c ****     *    software buffer which are waiting to be transmitted. Bytes available in the
1253:.\Generated_Source\PSoC4/zigbee.c ****     *    TX FIFO do not count.
1254:.\Generated_Source\PSoC4/zigbee.c ****     *
1255:.\Generated_Source\PSoC4/zigbee.c ****     * Parameters:
1256:.\Generated_Source\PSoC4/zigbee.c ****     *  None.
1257:.\Generated_Source\PSoC4/zigbee.c ****     *
1258:.\Generated_Source\PSoC4/zigbee.c ****     * Return:
1259:.\Generated_Source\PSoC4/zigbee.c ****     *  Number of bytes used in the TX buffer. Return value type depends on the TX 
1260:.\Generated_Source\PSoC4/zigbee.c ****     *  Buffer Size parameter.
1261:.\Generated_Source\PSoC4/zigbee.c ****     *
1262:.\Generated_Source\PSoC4/zigbee.c ****     * Global Variables:
1263:.\Generated_Source\PSoC4/zigbee.c ****     *  zigbee_txBufferWrite - used to calculate left space.
1264:.\Generated_Source\PSoC4/zigbee.c ****     *  zigbee_txBufferRead - used to calculate left space.
1265:.\Generated_Source\PSoC4/zigbee.c ****     *
1266:.\Generated_Source\PSoC4/zigbee.c ****     * Reentrant:
1267:.\Generated_Source\PSoC4/zigbee.c ****     *  No.
1268:.\Generated_Source\PSoC4/zigbee.c ****     *
1269:.\Generated_Source\PSoC4/zigbee.c ****     * Theory:
1270:.\Generated_Source\PSoC4/zigbee.c ****     *  Allows the user to find out how full the TX Buffer is.
1271:.\Generated_Source\PSoC4/zigbee.c ****     *
1272:.\Generated_Source\PSoC4/zigbee.c ****     *******************************************************************************/
1273:.\Generated_Source\PSoC4/zigbee.c ****     uint8 zigbee_GetTxBufferSize(void)
ARM GAS  C:\Users\Dylan\AppData\Local\Temp\ccGZdebx.s 			page 32


1274:.\Generated_Source\PSoC4/zigbee.c ****                                                             
1275:.\Generated_Source\PSoC4/zigbee.c ****     {
 487              		.loc 1 1275 0
 488              		.cfi_startproc
1276:.\Generated_Source\PSoC4/zigbee.c ****         uint8 size;
1277:.\Generated_Source\PSoC4/zigbee.c **** 
1278:.\Generated_Source\PSoC4/zigbee.c ****     #if (zigbee_TX_INTERRUPT_ENABLED)
1279:.\Generated_Source\PSoC4/zigbee.c **** 
1280:.\Generated_Source\PSoC4/zigbee.c ****         /* Protect variables that could change on interrupt. */
1281:.\Generated_Source\PSoC4/zigbee.c ****         zigbee_DisableTxInt();
1282:.\Generated_Source\PSoC4/zigbee.c **** 
1283:.\Generated_Source\PSoC4/zigbee.c ****         if(zigbee_txBufferRead == zigbee_txBufferWrite)
1284:.\Generated_Source\PSoC4/zigbee.c ****         {
1285:.\Generated_Source\PSoC4/zigbee.c ****             size = 0u;
1286:.\Generated_Source\PSoC4/zigbee.c ****         }
1287:.\Generated_Source\PSoC4/zigbee.c ****         else if(zigbee_txBufferRead < zigbee_txBufferWrite)
1288:.\Generated_Source\PSoC4/zigbee.c ****         {
1289:.\Generated_Source\PSoC4/zigbee.c ****             size = (zigbee_txBufferWrite - zigbee_txBufferRead);
1290:.\Generated_Source\PSoC4/zigbee.c ****         }
1291:.\Generated_Source\PSoC4/zigbee.c ****         else
1292:.\Generated_Source\PSoC4/zigbee.c ****         {
1293:.\Generated_Source\PSoC4/zigbee.c ****             size = (zigbee_TX_BUFFER_SIZE - zigbee_txBufferRead) +
1294:.\Generated_Source\PSoC4/zigbee.c ****                     zigbee_txBufferWrite;
1295:.\Generated_Source\PSoC4/zigbee.c ****         }
1296:.\Generated_Source\PSoC4/zigbee.c **** 
1297:.\Generated_Source\PSoC4/zigbee.c ****         zigbee_EnableTxInt();
1298:.\Generated_Source\PSoC4/zigbee.c **** 
1299:.\Generated_Source\PSoC4/zigbee.c ****     #else
1300:.\Generated_Source\PSoC4/zigbee.c **** 
1301:.\Generated_Source\PSoC4/zigbee.c ****         size = zigbee_TXSTATUS_REG;
 489              		.loc 1 1301 0
 490 0000 064B     		ldr	r3, .L52
 491 0002 1B78     		ldrb	r3, [r3]
 492 0004 DBB2     		uxtb	r3, r3
 493              	.LVL38:
1302:.\Generated_Source\PSoC4/zigbee.c **** 
1303:.\Generated_Source\PSoC4/zigbee.c ****         /* Is the fifo is full. */
1304:.\Generated_Source\PSoC4/zigbee.c ****         if((size & zigbee_TX_STS_FIFO_FULL) != 0u)
 494              		.loc 1 1304 0
 495 0006 5A07     		lsl	r2, r3, #29
 496 0008 03D4     		bmi	.L50
1305:.\Generated_Source\PSoC4/zigbee.c ****         {
1306:.\Generated_Source\PSoC4/zigbee.c ****             size = zigbee_FIFO_LENGTH;
1307:.\Generated_Source\PSoC4/zigbee.c ****         }
1308:.\Generated_Source\PSoC4/zigbee.c ****         else if((size & zigbee_TX_STS_FIFO_EMPTY) != 0u)
 497              		.loc 1 1308 0
 498 000a 9B07     		lsl	r3, r3, #30
 499 000c 03D5     		bpl	.L51
 500              	.LVL39:
1309:.\Generated_Source\PSoC4/zigbee.c ****         {
1310:.\Generated_Source\PSoC4/zigbee.c ****             size = 0u;
 501              		.loc 1 1310 0
 502 000e 0020     		mov	r0, #0
 503 0010 02E0     		b	.L49
 504              	.LVL40:
 505              	.L50:
1306:.\Generated_Source\PSoC4/zigbee.c ****         }
ARM GAS  C:\Users\Dylan\AppData\Local\Temp\ccGZdebx.s 			page 33


 506              		.loc 1 1306 0
 507 0012 0420     		mov	r0, #4
 508 0014 00E0     		b	.L49
 509              	.LVL41:
 510              	.L51:
1311:.\Generated_Source\PSoC4/zigbee.c ****         }
1312:.\Generated_Source\PSoC4/zigbee.c ****         else
1313:.\Generated_Source\PSoC4/zigbee.c ****         {
1314:.\Generated_Source\PSoC4/zigbee.c ****             /* We only know there is data in the fifo. */
1315:.\Generated_Source\PSoC4/zigbee.c ****             size = 1u;
 511              		.loc 1 1315 0
 512 0016 0120     		mov	r0, #1
 513              	.L49:
 514              	.LVL42:
1316:.\Generated_Source\PSoC4/zigbee.c ****         }
1317:.\Generated_Source\PSoC4/zigbee.c **** 
1318:.\Generated_Source\PSoC4/zigbee.c ****     #endif /* (zigbee_TX_INTERRUPT_ENABLED) */
1319:.\Generated_Source\PSoC4/zigbee.c **** 
1320:.\Generated_Source\PSoC4/zigbee.c ****     return(size);
1321:.\Generated_Source\PSoC4/zigbee.c ****     }
 515              		.loc 1 1321 0
 516              		@ sp needed
 517 0018 7047     		bx	lr
 518              	.L53:
 519 001a C046     		.align	2
 520              	.L52:
 521 001c 63000F40 		.word	1074724963
 522              		.cfi_endproc
 523              	.LFE13:
 524              		.size	zigbee_GetTxBufferSize, .-zigbee_GetTxBufferSize
 525              		.section	.text.zigbee_ClearTxBuffer,"ax",%progbits
 526              		.align	2
 527              		.global	zigbee_ClearTxBuffer
 528              		.code	16
 529              		.thumb_func
 530              		.type	zigbee_ClearTxBuffer, %function
 531              	zigbee_ClearTxBuffer:
 532              	.LFB14:
1322:.\Generated_Source\PSoC4/zigbee.c **** 
1323:.\Generated_Source\PSoC4/zigbee.c **** 
1324:.\Generated_Source\PSoC4/zigbee.c ****     /*******************************************************************************
1325:.\Generated_Source\PSoC4/zigbee.c ****     * Function Name: zigbee_ClearTxBuffer
1326:.\Generated_Source\PSoC4/zigbee.c ****     ********************************************************************************
1327:.\Generated_Source\PSoC4/zigbee.c ****     *
1328:.\Generated_Source\PSoC4/zigbee.c ****     * Summary:
1329:.\Generated_Source\PSoC4/zigbee.c ****     *  Clears all data from the TX buffer and hardware TX FIFO.
1330:.\Generated_Source\PSoC4/zigbee.c ****     *
1331:.\Generated_Source\PSoC4/zigbee.c ****     * Parameters:
1332:.\Generated_Source\PSoC4/zigbee.c ****     *  None.
1333:.\Generated_Source\PSoC4/zigbee.c ****     *
1334:.\Generated_Source\PSoC4/zigbee.c ****     * Return:
1335:.\Generated_Source\PSoC4/zigbee.c ****     *  None.
1336:.\Generated_Source\PSoC4/zigbee.c ****     *
1337:.\Generated_Source\PSoC4/zigbee.c ****     * Global Variables:
1338:.\Generated_Source\PSoC4/zigbee.c ****     *  zigbee_txBufferWrite - cleared to zero.
1339:.\Generated_Source\PSoC4/zigbee.c ****     *  zigbee_txBufferRead - cleared to zero.
1340:.\Generated_Source\PSoC4/zigbee.c ****     *
ARM GAS  C:\Users\Dylan\AppData\Local\Temp\ccGZdebx.s 			page 34


1341:.\Generated_Source\PSoC4/zigbee.c ****     * Reentrant:
1342:.\Generated_Source\PSoC4/zigbee.c ****     *  No.
1343:.\Generated_Source\PSoC4/zigbee.c ****     *
1344:.\Generated_Source\PSoC4/zigbee.c ****     * Theory:
1345:.\Generated_Source\PSoC4/zigbee.c ****     *  Setting the pointers to zero makes the system believe there is no data to
1346:.\Generated_Source\PSoC4/zigbee.c ****     *  read and writing will resume at address 0 overwriting any data that may have
1347:.\Generated_Source\PSoC4/zigbee.c ****     *  remained in the RAM.
1348:.\Generated_Source\PSoC4/zigbee.c ****     *
1349:.\Generated_Source\PSoC4/zigbee.c ****     * Side Effects:
1350:.\Generated_Source\PSoC4/zigbee.c ****     *  Data waiting in the transmit buffer is not sent; a byte that is currently
1351:.\Generated_Source\PSoC4/zigbee.c ****     *  transmitting finishes transmitting.
1352:.\Generated_Source\PSoC4/zigbee.c ****     *
1353:.\Generated_Source\PSoC4/zigbee.c ****     *******************************************************************************/
1354:.\Generated_Source\PSoC4/zigbee.c ****     void zigbee_ClearTxBuffer(void) 
1355:.\Generated_Source\PSoC4/zigbee.c ****     {
 533              		.loc 1 1355 0
 534              		.cfi_startproc
 535 0000 08B5     		push	{r3, lr}
 536              		.cfi_def_cfa_offset 8
 537              		.cfi_offset 3, -8
 538              		.cfi_offset 14, -4
1356:.\Generated_Source\PSoC4/zigbee.c ****         uint8 enableInterrupts;
1357:.\Generated_Source\PSoC4/zigbee.c **** 
1358:.\Generated_Source\PSoC4/zigbee.c ****         enableInterrupts = CyEnterCriticalSection();
 539              		.loc 1 1358 0
 540 0002 FFF7FEFF 		bl	CyEnterCriticalSection
 541              	.LVL43:
1359:.\Generated_Source\PSoC4/zigbee.c ****         /* Clear the HW FIFO */
1360:.\Generated_Source\PSoC4/zigbee.c ****         zigbee_TXDATA_AUX_CTL_REG |= (uint8)  zigbee_TX_FIFO_CLR;
 542              		.loc 1 1360 0
 543 0006 064B     		ldr	r3, .L55
 544 0008 1978     		ldrb	r1, [r3]
 545 000a 0122     		mov	r2, #1
 546 000c 0A43     		orr	r2, r1
 547 000e 1A70     		strb	r2, [r3]
1361:.\Generated_Source\PSoC4/zigbee.c ****         zigbee_TXDATA_AUX_CTL_REG &= (uint8) ~zigbee_TX_FIFO_CLR;
 548              		.loc 1 1361 0
 549 0010 1A78     		ldrb	r2, [r3]
 550 0012 0121     		mov	r1, #1
 551 0014 8A43     		bic	r2, r1
 552 0016 1A70     		strb	r2, [r3]
1362:.\Generated_Source\PSoC4/zigbee.c ****         CyExitCriticalSection(enableInterrupts);
 553              		.loc 1 1362 0
 554 0018 FFF7FEFF 		bl	CyExitCriticalSection
 555              	.LVL44:
1363:.\Generated_Source\PSoC4/zigbee.c **** 
1364:.\Generated_Source\PSoC4/zigbee.c ****     #if (zigbee_TX_INTERRUPT_ENABLED)
1365:.\Generated_Source\PSoC4/zigbee.c **** 
1366:.\Generated_Source\PSoC4/zigbee.c ****         /* Protect variables that could change on interrupt. */
1367:.\Generated_Source\PSoC4/zigbee.c ****         zigbee_DisableTxInt();
1368:.\Generated_Source\PSoC4/zigbee.c **** 
1369:.\Generated_Source\PSoC4/zigbee.c ****         zigbee_txBufferRead = 0u;
1370:.\Generated_Source\PSoC4/zigbee.c ****         zigbee_txBufferWrite = 0u;
1371:.\Generated_Source\PSoC4/zigbee.c **** 
1372:.\Generated_Source\PSoC4/zigbee.c ****         /* Enable Tx interrupt. */
1373:.\Generated_Source\PSoC4/zigbee.c ****         zigbee_EnableTxInt();
1374:.\Generated_Source\PSoC4/zigbee.c **** 
ARM GAS  C:\Users\Dylan\AppData\Local\Temp\ccGZdebx.s 			page 35


1375:.\Generated_Source\PSoC4/zigbee.c ****     #endif /* (zigbee_TX_INTERRUPT_ENABLED) */
1376:.\Generated_Source\PSoC4/zigbee.c ****     }
 556              		.loc 1 1376 0
 557              		@ sp needed
 558 001c 08BD     		pop	{r3, pc}
 559              	.L56:
 560 001e C046     		.align	2
 561              	.L55:
 562 0020 93000F40 		.word	1074725011
 563              		.cfi_endproc
 564              	.LFE14:
 565              		.size	zigbee_ClearTxBuffer, .-zigbee_ClearTxBuffer
 566              		.section	.text.zigbee_SendBreak,"ax",%progbits
 567              		.align	2
 568              		.global	zigbee_SendBreak
 569              		.code	16
 570              		.thumb_func
 571              		.type	zigbee_SendBreak, %function
 572              	zigbee_SendBreak:
 573              	.LFB15:
1377:.\Generated_Source\PSoC4/zigbee.c **** 
1378:.\Generated_Source\PSoC4/zigbee.c **** 
1379:.\Generated_Source\PSoC4/zigbee.c ****     /*******************************************************************************
1380:.\Generated_Source\PSoC4/zigbee.c ****     * Function Name: zigbee_SendBreak
1381:.\Generated_Source\PSoC4/zigbee.c ****     ********************************************************************************
1382:.\Generated_Source\PSoC4/zigbee.c ****     *
1383:.\Generated_Source\PSoC4/zigbee.c ****     * Summary:
1384:.\Generated_Source\PSoC4/zigbee.c ****     *  Transmits a break signal on the bus.
1385:.\Generated_Source\PSoC4/zigbee.c ****     *
1386:.\Generated_Source\PSoC4/zigbee.c ****     * Parameters:
1387:.\Generated_Source\PSoC4/zigbee.c ****     *  uint8 retMode:  Send Break return mode. See the following table for options.
1388:.\Generated_Source\PSoC4/zigbee.c ****     *   zigbee_SEND_BREAK - Initialize registers for break, send the Break
1389:.\Generated_Source\PSoC4/zigbee.c ****     *       signal and return immediately.
1390:.\Generated_Source\PSoC4/zigbee.c ****     *   zigbee_WAIT_FOR_COMPLETE_REINIT - Wait until break transmission is
1391:.\Generated_Source\PSoC4/zigbee.c ****     *       complete, reinitialize registers to normal transmission mode then return
1392:.\Generated_Source\PSoC4/zigbee.c ****     *   zigbee_REINIT - Reinitialize registers to normal transmission mode
1393:.\Generated_Source\PSoC4/zigbee.c ****     *       then return.
1394:.\Generated_Source\PSoC4/zigbee.c ****     *   zigbee_SEND_WAIT_REINIT - Performs both options: 
1395:.\Generated_Source\PSoC4/zigbee.c ****     *      zigbee_SEND_BREAK and zigbee_WAIT_FOR_COMPLETE_REINIT.
1396:.\Generated_Source\PSoC4/zigbee.c ****     *      This option is recommended for most cases.
1397:.\Generated_Source\PSoC4/zigbee.c ****     *
1398:.\Generated_Source\PSoC4/zigbee.c ****     * Return:
1399:.\Generated_Source\PSoC4/zigbee.c ****     *  None.
1400:.\Generated_Source\PSoC4/zigbee.c ****     *
1401:.\Generated_Source\PSoC4/zigbee.c ****     * Global Variables:
1402:.\Generated_Source\PSoC4/zigbee.c ****     *  zigbee_initVar - checked to identify that the component has been
1403:.\Generated_Source\PSoC4/zigbee.c ****     *     initialized.
1404:.\Generated_Source\PSoC4/zigbee.c ****     *  txPeriod - static variable, used for keeping TX period configuration.
1405:.\Generated_Source\PSoC4/zigbee.c ****     *
1406:.\Generated_Source\PSoC4/zigbee.c ****     * Reentrant:
1407:.\Generated_Source\PSoC4/zigbee.c ****     *  No.
1408:.\Generated_Source\PSoC4/zigbee.c ****     *
1409:.\Generated_Source\PSoC4/zigbee.c ****     * Theory:
1410:.\Generated_Source\PSoC4/zigbee.c ****     *  SendBreak function initializes registers to send 13-bit break signal. It is
1411:.\Generated_Source\PSoC4/zigbee.c ****     *  important to return the registers configuration to normal for continue 8-bit
1412:.\Generated_Source\PSoC4/zigbee.c ****     *  operation.
1413:.\Generated_Source\PSoC4/zigbee.c ****     *  There are 3 variants for this API usage:
ARM GAS  C:\Users\Dylan\AppData\Local\Temp\ccGZdebx.s 			page 36


1414:.\Generated_Source\PSoC4/zigbee.c ****     *  1) SendBreak(3) - function will send the Break signal and take care on the
1415:.\Generated_Source\PSoC4/zigbee.c ****     *     configuration returning. Function will block CPU until transmission
1416:.\Generated_Source\PSoC4/zigbee.c ****     *     complete.
1417:.\Generated_Source\PSoC4/zigbee.c ****     *  2) User may want to use blocking time if UART configured to the low speed
1418:.\Generated_Source\PSoC4/zigbee.c ****     *     operation
1419:.\Generated_Source\PSoC4/zigbee.c ****     *     Example for this case:
1420:.\Generated_Source\PSoC4/zigbee.c ****     *     SendBreak(0);     - initialize Break signal transmission
1421:.\Generated_Source\PSoC4/zigbee.c ****     *         Add your code here to use CPU time
1422:.\Generated_Source\PSoC4/zigbee.c ****     *     SendBreak(1);     - complete Break operation
1423:.\Generated_Source\PSoC4/zigbee.c ****     *  3) Same to 2) but user may want to initialize and use the interrupt to
1424:.\Generated_Source\PSoC4/zigbee.c ****     *     complete break operation.
1425:.\Generated_Source\PSoC4/zigbee.c ****     *     Example for this case:
1426:.\Generated_Source\PSoC4/zigbee.c ****     *     Initialize TX interrupt with "TX - On TX Complete" parameter
1427:.\Generated_Source\PSoC4/zigbee.c ****     *     SendBreak(0);     - initialize Break signal transmission
1428:.\Generated_Source\PSoC4/zigbee.c ****     *         Add your code here to use CPU time
1429:.\Generated_Source\PSoC4/zigbee.c ****     *     When interrupt appear with zigbee_TX_STS_COMPLETE status:
1430:.\Generated_Source\PSoC4/zigbee.c ****     *     SendBreak(2);     - complete Break operation
1431:.\Generated_Source\PSoC4/zigbee.c ****     *
1432:.\Generated_Source\PSoC4/zigbee.c ****     * Side Effects:
1433:.\Generated_Source\PSoC4/zigbee.c ****     *  The zigbee_SendBreak() function initializes registers to send a
1434:.\Generated_Source\PSoC4/zigbee.c ****     *  break signal.
1435:.\Generated_Source\PSoC4/zigbee.c ****     *  Break signal length depends on the break signal bits configuration.
1436:.\Generated_Source\PSoC4/zigbee.c ****     *  The register configuration should be reinitialized before normal 8-bit
1437:.\Generated_Source\PSoC4/zigbee.c ****     *  communication can continue.
1438:.\Generated_Source\PSoC4/zigbee.c ****     *
1439:.\Generated_Source\PSoC4/zigbee.c ****     *******************************************************************************/
1440:.\Generated_Source\PSoC4/zigbee.c ****     void zigbee_SendBreak(uint8 retMode) 
1441:.\Generated_Source\PSoC4/zigbee.c ****     {
 574              		.loc 1 1441 0
 575              		.cfi_startproc
 576              	.LVL45:
1442:.\Generated_Source\PSoC4/zigbee.c **** 
1443:.\Generated_Source\PSoC4/zigbee.c ****         /* If not Initialized then skip this function*/
1444:.\Generated_Source\PSoC4/zigbee.c ****         if(zigbee_initVar != 0u)
 577              		.loc 1 1444 0
 578 0000 124B     		ldr	r3, .L64
 579 0002 1B78     		ldrb	r3, [r3]
 580 0004 002B     		cmp	r3, #0
 581 0006 1FD0     		beq	.L57
 582              	.LBB2:
1445:.\Generated_Source\PSoC4/zigbee.c ****         {
1446:.\Generated_Source\PSoC4/zigbee.c ****             /* Set the Counter to 13-bits and transmit a 00 byte */
1447:.\Generated_Source\PSoC4/zigbee.c ****             /* When that is done then reset the counter value back */
1448:.\Generated_Source\PSoC4/zigbee.c ****             uint8 tmpStat;
1449:.\Generated_Source\PSoC4/zigbee.c **** 
1450:.\Generated_Source\PSoC4/zigbee.c ****         #if(zigbee_HD_ENABLED) /* Half Duplex mode*/
1451:.\Generated_Source\PSoC4/zigbee.c **** 
1452:.\Generated_Source\PSoC4/zigbee.c ****             if( (retMode == zigbee_SEND_BREAK) ||
1453:.\Generated_Source\PSoC4/zigbee.c ****                 (retMode == zigbee_SEND_WAIT_REINIT ) )
1454:.\Generated_Source\PSoC4/zigbee.c ****             {
1455:.\Generated_Source\PSoC4/zigbee.c ****                 /* CTRL_HD_SEND_BREAK - sends break bits in HD mode */
1456:.\Generated_Source\PSoC4/zigbee.c ****                 zigbee_WriteControlRegister(zigbee_ReadControlRegister() |
1457:.\Generated_Source\PSoC4/zigbee.c ****                                                       zigbee_CTRL_HD_SEND_BREAK);
1458:.\Generated_Source\PSoC4/zigbee.c ****                 /* Send zeros */
1459:.\Generated_Source\PSoC4/zigbee.c ****                 zigbee_TXDATA_REG = 0u;
1460:.\Generated_Source\PSoC4/zigbee.c **** 
1461:.\Generated_Source\PSoC4/zigbee.c ****                 do /* Wait until transmit starts */
ARM GAS  C:\Users\Dylan\AppData\Local\Temp\ccGZdebx.s 			page 37


1462:.\Generated_Source\PSoC4/zigbee.c ****                 {
1463:.\Generated_Source\PSoC4/zigbee.c ****                     tmpStat = zigbee_TXSTATUS_REG;
1464:.\Generated_Source\PSoC4/zigbee.c ****                 }
1465:.\Generated_Source\PSoC4/zigbee.c ****                 while((tmpStat & zigbee_TX_STS_FIFO_EMPTY) != 0u);
1466:.\Generated_Source\PSoC4/zigbee.c ****             }
1467:.\Generated_Source\PSoC4/zigbee.c **** 
1468:.\Generated_Source\PSoC4/zigbee.c ****             if( (retMode == zigbee_WAIT_FOR_COMPLETE_REINIT) ||
1469:.\Generated_Source\PSoC4/zigbee.c ****                 (retMode == zigbee_SEND_WAIT_REINIT) )
1470:.\Generated_Source\PSoC4/zigbee.c ****             {
1471:.\Generated_Source\PSoC4/zigbee.c ****                 do /* Wait until transmit complete */
1472:.\Generated_Source\PSoC4/zigbee.c ****                 {
1473:.\Generated_Source\PSoC4/zigbee.c ****                     tmpStat = zigbee_TXSTATUS_REG;
1474:.\Generated_Source\PSoC4/zigbee.c ****                 }
1475:.\Generated_Source\PSoC4/zigbee.c ****                 while(((uint8)~tmpStat & zigbee_TX_STS_COMPLETE) != 0u);
1476:.\Generated_Source\PSoC4/zigbee.c ****             }
1477:.\Generated_Source\PSoC4/zigbee.c **** 
1478:.\Generated_Source\PSoC4/zigbee.c ****             if( (retMode == zigbee_WAIT_FOR_COMPLETE_REINIT) ||
1479:.\Generated_Source\PSoC4/zigbee.c ****                 (retMode == zigbee_REINIT) ||
1480:.\Generated_Source\PSoC4/zigbee.c ****                 (retMode == zigbee_SEND_WAIT_REINIT) )
1481:.\Generated_Source\PSoC4/zigbee.c ****             {
1482:.\Generated_Source\PSoC4/zigbee.c ****                 zigbee_WriteControlRegister(zigbee_ReadControlRegister() &
1483:.\Generated_Source\PSoC4/zigbee.c ****                                               (uint8)~zigbee_CTRL_HD_SEND_BREAK);
1484:.\Generated_Source\PSoC4/zigbee.c ****             }
1485:.\Generated_Source\PSoC4/zigbee.c **** 
1486:.\Generated_Source\PSoC4/zigbee.c ****         #else /* zigbee_HD_ENABLED Full Duplex mode */
1487:.\Generated_Source\PSoC4/zigbee.c **** 
1488:.\Generated_Source\PSoC4/zigbee.c ****             static uint8 txPeriod;
1489:.\Generated_Source\PSoC4/zigbee.c **** 
1490:.\Generated_Source\PSoC4/zigbee.c ****             if( (retMode == zigbee_SEND_BREAK) ||
 583              		.loc 1 1490 0
 584 0008 0028     		cmp	r0, #0
 585 000a 01D0     		beq	.L59
 586              		.loc 1 1490 0 is_stmt 0 discriminator 1
 587 000c 0328     		cmp	r0, #3
 588 000e 0CD1     		bne	.L60
 589              	.L59:
1491:.\Generated_Source\PSoC4/zigbee.c ****                 (retMode == zigbee_SEND_WAIT_REINIT) )
1492:.\Generated_Source\PSoC4/zigbee.c ****             {
1493:.\Generated_Source\PSoC4/zigbee.c ****                 /* CTRL_HD_SEND_BREAK - skip to send parity bit at Break signal in Full Duplex mode
1494:.\Generated_Source\PSoC4/zigbee.c ****                 #if( (zigbee_PARITY_TYPE != zigbee__B_UART__NONE_REVB) || \
1495:.\Generated_Source\PSoC4/zigbee.c ****                                     (zigbee_PARITY_TYPE_SW != 0u) )
1496:.\Generated_Source\PSoC4/zigbee.c ****                     zigbee_WriteControlRegister(zigbee_ReadControlRegister() |
1497:.\Generated_Source\PSoC4/zigbee.c ****                                                           zigbee_CTRL_HD_SEND_BREAK);
1498:.\Generated_Source\PSoC4/zigbee.c ****                 #endif /* End zigbee_PARITY_TYPE != zigbee__B_UART__NONE_REVB  */
1499:.\Generated_Source\PSoC4/zigbee.c **** 
1500:.\Generated_Source\PSoC4/zigbee.c ****                 #if(zigbee_TXCLKGEN_DP)
1501:.\Generated_Source\PSoC4/zigbee.c ****                     txPeriod = zigbee_TXBITCLKTX_COMPLETE_REG;
 590              		.loc 1 1501 0 is_stmt 1
 591 0010 0F4B     		ldr	r3, .L64+4
 592 0012 1978     		ldrb	r1, [r3]
 593 0014 0D4A     		ldr	r2, .L64
 594 0016 5170     		strb	r1, [r2, #1]
1502:.\Generated_Source\PSoC4/zigbee.c ****                     zigbee_TXBITCLKTX_COMPLETE_REG = zigbee_TXBITCTR_BREAKBITS;
 595              		.loc 1 1502 0
 596 0018 6722     		mov	r2, #103
 597 001a 1A70     		strb	r2, [r3]
1503:.\Generated_Source\PSoC4/zigbee.c ****                 #else
ARM GAS  C:\Users\Dylan\AppData\Local\Temp\ccGZdebx.s 			page 38


1504:.\Generated_Source\PSoC4/zigbee.c ****                     txPeriod = zigbee_TXBITCTR_PERIOD_REG;
1505:.\Generated_Source\PSoC4/zigbee.c ****                     zigbee_TXBITCTR_PERIOD_REG = zigbee_TXBITCTR_BREAKBITS8X;
1506:.\Generated_Source\PSoC4/zigbee.c ****                 #endif /* End zigbee_TXCLKGEN_DP */
1507:.\Generated_Source\PSoC4/zigbee.c **** 
1508:.\Generated_Source\PSoC4/zigbee.c ****                 /* Send zeros */
1509:.\Generated_Source\PSoC4/zigbee.c ****                 zigbee_TXDATA_REG = 0u;
 598              		.loc 1 1509 0
 599 001c 0022     		mov	r2, #0
 600 001e 0D4B     		ldr	r3, .L64+8
 601 0020 1A70     		strb	r2, [r3]
 602              	.L61:
1510:.\Generated_Source\PSoC4/zigbee.c **** 
1511:.\Generated_Source\PSoC4/zigbee.c ****                 do /* Wait until transmit starts */
1512:.\Generated_Source\PSoC4/zigbee.c ****                 {
1513:.\Generated_Source\PSoC4/zigbee.c ****                     tmpStat = zigbee_TXSTATUS_REG;
 603              		.loc 1 1513 0 discriminator 1
 604 0022 0D4B     		ldr	r3, .L64+12
 605 0024 1B78     		ldrb	r3, [r3]
 606              	.LVL46:
1514:.\Generated_Source\PSoC4/zigbee.c ****                 }
1515:.\Generated_Source\PSoC4/zigbee.c ****                 while((tmpStat & zigbee_TX_STS_FIFO_EMPTY) != 0u);
 607              		.loc 1 1515 0 discriminator 1
 608 0026 9B07     		lsl	r3, r3, #30
 609 0028 FBD4     		bmi	.L61
 610              	.LVL47:
 611              	.L60:
1516:.\Generated_Source\PSoC4/zigbee.c ****             }
1517:.\Generated_Source\PSoC4/zigbee.c **** 
1518:.\Generated_Source\PSoC4/zigbee.c ****             if( (retMode == zigbee_WAIT_FOR_COMPLETE_REINIT) ||
 612              		.loc 1 1518 0
 613 002a 0128     		cmp	r0, #1
 614 002c 01D0     		beq	.L62
 615              		.loc 1 1518 0 is_stmt 0 discriminator 1
 616 002e 0328     		cmp	r0, #3
 617 0030 03D1     		bne	.L63
 618              	.L62:
1519:.\Generated_Source\PSoC4/zigbee.c ****                 (retMode == zigbee_SEND_WAIT_REINIT) )
1520:.\Generated_Source\PSoC4/zigbee.c ****             {
1521:.\Generated_Source\PSoC4/zigbee.c ****                 do /* Wait until transmit complete */
1522:.\Generated_Source\PSoC4/zigbee.c ****                 {
1523:.\Generated_Source\PSoC4/zigbee.c ****                     tmpStat = zigbee_TXSTATUS_REG;
 619              		.loc 1 1523 0 is_stmt 1 discriminator 1
 620 0032 094B     		ldr	r3, .L64+12
 621 0034 1B78     		ldrb	r3, [r3]
 622              	.LVL48:
1524:.\Generated_Source\PSoC4/zigbee.c ****                 }
1525:.\Generated_Source\PSoC4/zigbee.c ****                 while(((uint8)~tmpStat & zigbee_TX_STS_COMPLETE) != 0u);
 623              		.loc 1 1525 0 discriminator 1
 624 0036 DB07     		lsl	r3, r3, #31
 625 0038 FBD5     		bpl	.L62
 626              	.LVL49:
 627              	.L63:
1526:.\Generated_Source\PSoC4/zigbee.c ****             }
1527:.\Generated_Source\PSoC4/zigbee.c **** 
1528:.\Generated_Source\PSoC4/zigbee.c ****             if( (retMode == zigbee_WAIT_FOR_COMPLETE_REINIT) ||
1529:.\Generated_Source\PSoC4/zigbee.c ****                 (retMode == zigbee_REINIT) ||
 628              		.loc 1 1529 0
ARM GAS  C:\Users\Dylan\AppData\Local\Temp\ccGZdebx.s 			page 39


 629 003a 0138     		sub	r0, r0, #1
 630              	.LVL50:
1528:.\Generated_Source\PSoC4/zigbee.c ****                 (retMode == zigbee_REINIT) ||
 631              		.loc 1 1528 0
 632 003c 0228     		cmp	r0, #2
 633 003e 03D8     		bhi	.L57
1530:.\Generated_Source\PSoC4/zigbee.c ****                 (retMode == zigbee_SEND_WAIT_REINIT) )
1531:.\Generated_Source\PSoC4/zigbee.c ****             {
1532:.\Generated_Source\PSoC4/zigbee.c **** 
1533:.\Generated_Source\PSoC4/zigbee.c ****             #if(zigbee_TXCLKGEN_DP)
1534:.\Generated_Source\PSoC4/zigbee.c ****                 zigbee_TXBITCLKTX_COMPLETE_REG = txPeriod;
 634              		.loc 1 1534 0
 635 0040 024B     		ldr	r3, .L64
 636 0042 5A78     		ldrb	r2, [r3, #1]
 637 0044 024B     		ldr	r3, .L64+4
 638 0046 1A70     		strb	r2, [r3]
 639              	.L57:
 640              	.LBE2:
1535:.\Generated_Source\PSoC4/zigbee.c ****             #else
1536:.\Generated_Source\PSoC4/zigbee.c ****                 zigbee_TXBITCTR_PERIOD_REG = txPeriod;
1537:.\Generated_Source\PSoC4/zigbee.c ****             #endif /* End zigbee_TXCLKGEN_DP */
1538:.\Generated_Source\PSoC4/zigbee.c **** 
1539:.\Generated_Source\PSoC4/zigbee.c ****             #if( (zigbee_PARITY_TYPE != zigbee__B_UART__NONE_REVB) || \
1540:.\Generated_Source\PSoC4/zigbee.c ****                  (zigbee_PARITY_TYPE_SW != 0u) )
1541:.\Generated_Source\PSoC4/zigbee.c ****                 zigbee_WriteControlRegister(zigbee_ReadControlRegister() &
1542:.\Generated_Source\PSoC4/zigbee.c ****                                                       (uint8) ~zigbee_CTRL_HD_SEND_BREAK);
1543:.\Generated_Source\PSoC4/zigbee.c ****             #endif /* End zigbee_PARITY_TYPE != NONE */
1544:.\Generated_Source\PSoC4/zigbee.c ****             }
1545:.\Generated_Source\PSoC4/zigbee.c ****         #endif    /* End zigbee_HD_ENABLED */
1546:.\Generated_Source\PSoC4/zigbee.c ****         }
1547:.\Generated_Source\PSoC4/zigbee.c ****     }
 641              		.loc 1 1547 0
 642              		@ sp needed
 643 0048 7047     		bx	lr
 644              	.L65:
 645 004a C046     		.align	2
 646              	.L64:
 647 004c 00000000 		.word	.LANCHOR0
 648 0050 32000F40 		.word	1074724914
 649 0054 43000F40 		.word	1074724931
 650 0058 63000F40 		.word	1074724963
 651              		.cfi_endproc
 652              	.LFE15:
 653              		.size	zigbee_SendBreak, .-zigbee_SendBreak
 654              		.section	.text.zigbee_SetTxAddressMode,"ax",%progbits
 655              		.align	2
 656              		.global	zigbee_SetTxAddressMode
 657              		.code	16
 658              		.thumb_func
 659              		.type	zigbee_SetTxAddressMode, %function
 660              	zigbee_SetTxAddressMode:
 661              	.LFB16:
1548:.\Generated_Source\PSoC4/zigbee.c **** 
1549:.\Generated_Source\PSoC4/zigbee.c **** 
1550:.\Generated_Source\PSoC4/zigbee.c ****     /*******************************************************************************
1551:.\Generated_Source\PSoC4/zigbee.c ****     * Function Name: zigbee_SetTxAddressMode
1552:.\Generated_Source\PSoC4/zigbee.c ****     ********************************************************************************
ARM GAS  C:\Users\Dylan\AppData\Local\Temp\ccGZdebx.s 			page 40


1553:.\Generated_Source\PSoC4/zigbee.c ****     *
1554:.\Generated_Source\PSoC4/zigbee.c ****     * Summary:
1555:.\Generated_Source\PSoC4/zigbee.c ****     *  Configures the transmitter to signal the next bytes is address or data.
1556:.\Generated_Source\PSoC4/zigbee.c ****     *
1557:.\Generated_Source\PSoC4/zigbee.c ****     * Parameters:
1558:.\Generated_Source\PSoC4/zigbee.c ****     *  addressMode: 
1559:.\Generated_Source\PSoC4/zigbee.c ****     *       zigbee_SET_SPACE - Configure the transmitter to send the next
1560:.\Generated_Source\PSoC4/zigbee.c ****     *                                    byte as a data.
1561:.\Generated_Source\PSoC4/zigbee.c ****     *       zigbee_SET_MARK  - Configure the transmitter to send the next
1562:.\Generated_Source\PSoC4/zigbee.c ****     *                                    byte as an address.
1563:.\Generated_Source\PSoC4/zigbee.c ****     *
1564:.\Generated_Source\PSoC4/zigbee.c ****     * Return:
1565:.\Generated_Source\PSoC4/zigbee.c ****     *  None.
1566:.\Generated_Source\PSoC4/zigbee.c ****     *
1567:.\Generated_Source\PSoC4/zigbee.c ****     * Side Effects:
1568:.\Generated_Source\PSoC4/zigbee.c ****     *  This function sets and clears zigbee_CTRL_MARK bit in the Control
1569:.\Generated_Source\PSoC4/zigbee.c ****     *  register.
1570:.\Generated_Source\PSoC4/zigbee.c ****     *
1571:.\Generated_Source\PSoC4/zigbee.c ****     *******************************************************************************/
1572:.\Generated_Source\PSoC4/zigbee.c ****     void zigbee_SetTxAddressMode(uint8 addressMode) 
1573:.\Generated_Source\PSoC4/zigbee.c ****     {
 662              		.loc 1 1573 0
 663              		.cfi_startproc
 664              	.LVL51:
1574:.\Generated_Source\PSoC4/zigbee.c ****         /* Mark/Space sending enable */
1575:.\Generated_Source\PSoC4/zigbee.c ****         if(addressMode != 0u)
1576:.\Generated_Source\PSoC4/zigbee.c ****         {
1577:.\Generated_Source\PSoC4/zigbee.c ****         #if( zigbee_CONTROL_REG_REMOVED == 0u )
1578:.\Generated_Source\PSoC4/zigbee.c ****             zigbee_WriteControlRegister(zigbee_ReadControlRegister() |
1579:.\Generated_Source\PSoC4/zigbee.c ****                                                   zigbee_CTRL_MARK);
1580:.\Generated_Source\PSoC4/zigbee.c ****         #endif /* End zigbee_CONTROL_REG_REMOVED == 0u */
1581:.\Generated_Source\PSoC4/zigbee.c ****         }
1582:.\Generated_Source\PSoC4/zigbee.c ****         else
1583:.\Generated_Source\PSoC4/zigbee.c ****         {
1584:.\Generated_Source\PSoC4/zigbee.c ****         #if( zigbee_CONTROL_REG_REMOVED == 0u )
1585:.\Generated_Source\PSoC4/zigbee.c ****             zigbee_WriteControlRegister(zigbee_ReadControlRegister() &
1586:.\Generated_Source\PSoC4/zigbee.c ****                                                   (uint8) ~zigbee_CTRL_MARK);
1587:.\Generated_Source\PSoC4/zigbee.c ****         #endif /* End zigbee_CONTROL_REG_REMOVED == 0u */
1588:.\Generated_Source\PSoC4/zigbee.c ****         }
1589:.\Generated_Source\PSoC4/zigbee.c ****     }
 665              		.loc 1 1589 0
 666              		@ sp needed
 667 0000 7047     		bx	lr
 668              		.cfi_endproc
 669              	.LFE16:
 670              		.size	zigbee_SetTxAddressMode, .-zigbee_SetTxAddressMode
 671              		.global	zigbee_initVar
 672 0002 C046     		.bss
 673              		.set	.LANCHOR0,. + 0
 674              		.type	zigbee_initVar, %object
 675              		.size	zigbee_initVar, 1
 676              	zigbee_initVar:
 677 0000 00       		.space	1
 678              		.type	txPeriod.4794, %object
 679              		.size	txPeriod.4794, 1
 680              	txPeriod.4794:
 681 0001 00       		.space	1
ARM GAS  C:\Users\Dylan\AppData\Local\Temp\ccGZdebx.s 			page 41


 682              		.text
 683              	.Letext0:
 684              		.file 2 ".\\Generated_Source\\PSoC4\\cytypes.h"
 685              		.file 3 ".\\Generated_Source\\PSoC4\\zigbee_IntClock.h"
 686              		.file 4 ".\\Generated_Source\\PSoC4\\CyLib.h"